GAS LISTING /tmp/ccINgOFR.s 			page 1


   1              		.file	"_new.cpp"
   2              		.option nopic
   3              		.option norelax
   4              		.attribute arch, "rv64i2p0_m2p0_a2p0"
   5              		.attribute unaligned_access, 0
   6              		.attribute stack_align, 16
   7              		.text
   8              	.Ltext0:
   9              		.align	2
  10              		.globl	_Znwm
  12              	_Znwm:
  13              	.LFB0:
  14              		.file 1 "src/_new.cpp"
   1:src/_new.cpp  **** //
   2:src/_new.cpp  **** // Created by marko on 20.4.22..
   3:src/_new.cpp  **** //
   4:src/_new.cpp  **** 
   5:src/_new.cpp  **** // #include "../lib/mem.h"
   6:src/_new.cpp  **** #include "../h/mem.hpp"
   7:src/_new.cpp  **** 
   8:src/_new.cpp  **** using size_t = decltype(sizeof(0));
   9:src/_new.cpp  **** 
  10:src/_new.cpp  **** void *operator new(size_t n)
  11:src/_new.cpp  **** {
  15              		.loc 1 11 1
  16              		.cfi_startproc
  17              	.LVL0:
  18 0000 130101FE 		addi	sp,sp,-32
  19              		.cfi_def_cfa_offset 32
  20 0004 233C1100 		sd	ra,24(sp)
  21 0008 23388100 		sd	s0,16(sp)
  22 000c 23349100 		sd	s1,8(sp)
  23              		.cfi_offset 1, -8
  24              		.cfi_offset 8, -16
  25              		.cfi_offset 9, -24
  26 0010 13040102 		addi	s0,sp,32
  27              		.cfi_def_cfa 8, 0
  28 0014 93040500 		mv	s1,a0
  12:src/_new.cpp  ****     return MemoryAllocator::getInstance()->mem_alloc(n);
  29              		.loc 1 12 5
  30              		.loc 1 12 53 is_stmt 0
  31 0018 97000000 		call	_ZN15MemoryAllocator11getInstanceEv
  31      E7800000 
  32              	.LVL1:
  33 0020 93850400 		mv	a1,s1
  34 0024 97000000 		call	_ZN15MemoryAllocator9mem_allocEm
  34      E7800000 
  35              	.LVL2:
  13:src/_new.cpp  **** }
  36              		.loc 1 13 1
  37 002c 83308101 		ld	ra,24(sp)
  38              		.cfi_restore 1
  39 0030 03340101 		ld	s0,16(sp)
  40              		.cfi_restore 8
  41              		.cfi_def_cfa 2, 32
  42 0034 83348100 		ld	s1,8(sp)
  43              		.cfi_restore 9
GAS LISTING /tmp/ccINgOFR.s 			page 2


  44              	.LVL3:
  45 0038 13010102 		addi	sp,sp,32
  46              		.cfi_def_cfa_offset 0
  47 003c 67800000 		jr	ra
  48              		.cfi_endproc
  49              	.LFE0:
  51              		.align	2
  52              		.globl	_Znam
  54              	_Znam:
  55              	.LFB1:
  14:src/_new.cpp  **** 
  15:src/_new.cpp  **** void *operator new[](size_t n)
  16:src/_new.cpp  **** {
  56              		.loc 1 16 1 is_stmt 1
  57              		.cfi_startproc
  58              	.LVL4:
  59 0040 130101FE 		addi	sp,sp,-32
  60              		.cfi_def_cfa_offset 32
  61 0044 233C1100 		sd	ra,24(sp)
  62 0048 23388100 		sd	s0,16(sp)
  63 004c 23349100 		sd	s1,8(sp)
  64              		.cfi_offset 1, -8
  65              		.cfi_offset 8, -16
  66              		.cfi_offset 9, -24
  67 0050 13040102 		addi	s0,sp,32
  68              		.cfi_def_cfa 8, 0
  69 0054 93040500 		mv	s1,a0
  17:src/_new.cpp  ****     return MemoryAllocator::getInstance()->mem_alloc(n);
  70              		.loc 1 17 5
  71              		.loc 1 17 53 is_stmt 0
  72 0058 97000000 		call	_ZN15MemoryAllocator11getInstanceEv
  72      E7800000 
  73              	.LVL5:
  74 0060 93850400 		mv	a1,s1
  75 0064 97000000 		call	_ZN15MemoryAllocator9mem_allocEm
  75      E7800000 
  76              	.LVL6:
  18:src/_new.cpp  **** }
  77              		.loc 1 18 1
  78 006c 83308101 		ld	ra,24(sp)
  79              		.cfi_restore 1
  80 0070 03340101 		ld	s0,16(sp)
  81              		.cfi_restore 8
  82              		.cfi_def_cfa 2, 32
  83 0074 83348100 		ld	s1,8(sp)
  84              		.cfi_restore 9
  85              	.LVL7:
  86 0078 13010102 		addi	sp,sp,32
  87              		.cfi_def_cfa_offset 0
  88 007c 67800000 		jr	ra
  89              		.cfi_endproc
  90              	.LFE1:
  92              		.align	2
  93              		.globl	_ZdlPv
  95              	_ZdlPv:
  96              	.LFB2:
  19:src/_new.cpp  **** 
GAS LISTING /tmp/ccINgOFR.s 			page 3


  20:src/_new.cpp  **** void operator delete(void *p) noexcept
  21:src/_new.cpp  **** {
  97              		.loc 1 21 1 is_stmt 1
  98              		.cfi_startproc
  99              		.cfi_personality 0x9b,DW.ref.__gxx_personality_v0
 100              		.cfi_lsda 0x1b,.LLSDA2
 101              	.LVL8:
 102 0080 130101FE 		addi	sp,sp,-32
 103              		.cfi_def_cfa_offset 32
 104 0084 233C1100 		sd	ra,24(sp)
 105 0088 23388100 		sd	s0,16(sp)
 106 008c 23349100 		sd	s1,8(sp)
 107              		.cfi_offset 1, -8
 108              		.cfi_offset 8, -16
 109              		.cfi_offset 9, -24
 110 0090 13040102 		addi	s0,sp,32
 111              		.cfi_def_cfa 8, 0
 112 0094 93040500 		mv	s1,a0
  22:src/_new.cpp  ****     MemoryAllocator::getInstance()->mem_free(p);
 113              		.loc 1 22 5
 114              		.loc 1 22 45 is_stmt 0
 115 0098 97000000 		call	_ZN15MemoryAllocator11getInstanceEv
 115      E7800000 
 116              	.LVL9:
 117 00a0 93850400 		mv	a1,s1
 118 00a4 97000000 		call	_ZN15MemoryAllocator8mem_freeEPv
 118      E7800000 
 119              	.LVL10:
  23:src/_new.cpp  **** }
 120              		.loc 1 23 1
 121 00ac 83308101 		ld	ra,24(sp)
 122              		.cfi_restore 1
 123 00b0 03340101 		ld	s0,16(sp)
 124              		.cfi_restore 8
 125              		.cfi_def_cfa 2, 32
 126 00b4 83348100 		ld	s1,8(sp)
 127              		.cfi_restore 9
 128              	.LVL11:
 129 00b8 13010102 		addi	sp,sp,32
 130              		.cfi_def_cfa_offset 0
 131 00bc 67800000 		jr	ra
 132              		.cfi_endproc
 133              	.LFE2:
 134              		.globl	__gxx_personality_v0
 135              		.section	.gcc_except_table,"aw",@progbits
 136              	.LLSDA2:
 137 0000 FF       		.byte	0xff
 138 0001 FF       		.byte	0xff
 139 0002 03       		.byte	0x3
 140 0003 00       		.byte	0
 141              		.text
 143              		.align	2
 144              		.globl	_ZdaPv
 146              	_ZdaPv:
 147              	.LFB3:
  24:src/_new.cpp  **** 
  25:src/_new.cpp  **** void operator delete[](void *p) noexcept
GAS LISTING /tmp/ccINgOFR.s 			page 4


  26:src/_new.cpp  **** {
 148              		.loc 1 26 1 is_stmt 1
 149              		.cfi_startproc
 150              		.cfi_personality 0x9b,DW.ref.__gxx_personality_v0
 151              		.cfi_lsda 0x1b,.LLSDA3
 152              	.LVL12:
 153 00c0 130101FE 		addi	sp,sp,-32
 154              		.cfi_def_cfa_offset 32
 155 00c4 233C1100 		sd	ra,24(sp)
 156 00c8 23388100 		sd	s0,16(sp)
 157 00cc 23349100 		sd	s1,8(sp)
 158              		.cfi_offset 1, -8
 159              		.cfi_offset 8, -16
 160              		.cfi_offset 9, -24
 161 00d0 13040102 		addi	s0,sp,32
 162              		.cfi_def_cfa 8, 0
 163 00d4 93040500 		mv	s1,a0
  27:src/_new.cpp  ****     MemoryAllocator::getInstance()->mem_free(p);
 164              		.loc 1 27 5
 165              		.loc 1 27 45 is_stmt 0
 166 00d8 97000000 		call	_ZN15MemoryAllocator11getInstanceEv
 166      E7800000 
 167              	.LVL13:
 168 00e0 93850400 		mv	a1,s1
 169 00e4 97000000 		call	_ZN15MemoryAllocator8mem_freeEPv
 169      E7800000 
 170              	.LVL14:
  28:src/_new.cpp  **** }...
 171              		.loc 1 28 1
 172 00ec 83308101 		ld	ra,24(sp)
 173              		.cfi_restore 1
 174 00f0 03340101 		ld	s0,16(sp)
 175              		.cfi_restore 8
 176              		.cfi_def_cfa 2, 32
 177 00f4 83348100 		ld	s1,8(sp)
 178              		.cfi_restore 9
 179              	.LVL15:
 180 00f8 13010102 		addi	sp,sp,32
 181              		.cfi_def_cfa_offset 0
 182 00fc 67800000 		jr	ra
 183              		.cfi_endproc
 184              	.LFE3:
 185              		.section	.gcc_except_table
 186              	.LLSDA3:
 187 0004 FF       		.byte	0xff
 188 0005 FF       		.byte	0xff
 189 0006 03       		.byte	0x3
 190 0007 00       		.byte	0
 191              		.text
 193              	.Letext0:
 194              		.file 2 "src/../h/../lib/hw.h"
 195              		.file 3 "src/../h/mem.hpp"
 1363              		.align	3
 1366              	DW.ref.__gxx_personality_v0:
 1367 0000 00000000 		.dword	__gxx_personality_v0
 1367      00000000 
 1368              		.ident	"GCC: () 8.3.0"
GAS LISTING /tmp/ccINgOFR.s 			page 5


GAS LISTING /tmp/ccINgOFR.s 			page 6


DEFINED SYMBOLS
                            *ABS*:0000000000000000 _new.cpp
     /tmp/ccINgOFR.s:12     .text:0000000000000000 _Znwm
     /tmp/ccINgOFR.s:16     .text:0000000000000000 .L0 
     /tmp/ccINgOFR.s:18     .text:0000000000000000 .L0 
     /tmp/ccINgOFR.s:19     .text:0000000000000004 .L0 
     /tmp/ccINgOFR.s:23     .text:0000000000000010 .L0 
     /tmp/ccINgOFR.s:24     .text:0000000000000010 .L0 
     /tmp/ccINgOFR.s:25     .text:0000000000000010 .L0 
     /tmp/ccINgOFR.s:27     .text:0000000000000014 .L0 
     /tmp/ccINgOFR.s:30     .text:0000000000000018 .L0 
     /tmp/ccINgOFR.s:31     .text:0000000000000018 .L0 
     /tmp/ccINgOFR.s:37     .text:000000000000002c .L0 
     /tmp/ccINgOFR.s:38     .text:0000000000000030 .L0 
     /tmp/ccINgOFR.s:40     .text:0000000000000034 .L0 
     /tmp/ccINgOFR.s:41     .text:0000000000000034 .L0 
     /tmp/ccINgOFR.s:43     .text:0000000000000038 .L0 
     /tmp/ccINgOFR.s:46     .text:000000000000003c .L0 
     /tmp/ccINgOFR.s:48     .text:0000000000000040 .L0 
     /tmp/ccINgOFR.s:54     .text:0000000000000040 _Znam
     /tmp/ccINgOFR.s:57     .text:0000000000000040 .L0 
     /tmp/ccINgOFR.s:59     .text:0000000000000040 .L0 
     /tmp/ccINgOFR.s:60     .text:0000000000000044 .L0 
     /tmp/ccINgOFR.s:64     .text:0000000000000050 .L0 
     /tmp/ccINgOFR.s:65     .text:0000000000000050 .L0 
     /tmp/ccINgOFR.s:66     .text:0000000000000050 .L0 
     /tmp/ccINgOFR.s:68     .text:0000000000000054 .L0 
     /tmp/ccINgOFR.s:71     .text:0000000000000058 .L0 
     /tmp/ccINgOFR.s:72     .text:0000000000000058 .L0 
     /tmp/ccINgOFR.s:78     .text:000000000000006c .L0 
     /tmp/ccINgOFR.s:79     .text:0000000000000070 .L0 
     /tmp/ccINgOFR.s:81     .text:0000000000000074 .L0 
     /tmp/ccINgOFR.s:82     .text:0000000000000074 .L0 
     /tmp/ccINgOFR.s:84     .text:0000000000000078 .L0 
     /tmp/ccINgOFR.s:87     .text:000000000000007c .L0 
     /tmp/ccINgOFR.s:89     .text:0000000000000080 .L0 
     /tmp/ccINgOFR.s:95     .text:0000000000000080 _ZdlPv
     /tmp/ccINgOFR.s:98     .text:0000000000000080 .L0 
     /tmp/ccINgOFR.s:1366   .sdata.DW.ref.__gxx_personality_v0:0000000000000000 DW.ref.__gxx_personality_v0
     /tmp/ccINgOFR.s:102    .text:0000000000000080 .L0 
     /tmp/ccINgOFR.s:103    .text:0000000000000084 .L0 
     /tmp/ccINgOFR.s:107    .text:0000000000000090 .L0 
     /tmp/ccINgOFR.s:108    .text:0000000000000090 .L0 
     /tmp/ccINgOFR.s:109    .text:0000000000000090 .L0 
     /tmp/ccINgOFR.s:111    .text:0000000000000094 .L0 
     /tmp/ccINgOFR.s:114    .text:0000000000000098 .L0 
     /tmp/ccINgOFR.s:115    .text:0000000000000098 .L0 
     /tmp/ccINgOFR.s:121    .text:00000000000000ac .L0 
     /tmp/ccINgOFR.s:122    .text:00000000000000b0 .L0 
     /tmp/ccINgOFR.s:124    .text:00000000000000b4 .L0 
     /tmp/ccINgOFR.s:125    .text:00000000000000b4 .L0 
     /tmp/ccINgOFR.s:127    .text:00000000000000b8 .L0 
     /tmp/ccINgOFR.s:130    .text:00000000000000bc .L0 
     /tmp/ccINgOFR.s:132    .text:00000000000000c0 .L0 
     /tmp/ccINgOFR.s:146    .text:00000000000000c0 _ZdaPv
     /tmp/ccINgOFR.s:149    .text:00000000000000c0 .L0 
     /tmp/ccINgOFR.s:153    .text:00000000000000c0 .L0 
GAS LISTING /tmp/ccINgOFR.s 			page 7


     /tmp/ccINgOFR.s:154    .text:00000000000000c4 .L0 
     /tmp/ccINgOFR.s:158    .text:00000000000000d0 .L0 
     /tmp/ccINgOFR.s:159    .text:00000000000000d0 .L0 
     /tmp/ccINgOFR.s:160    .text:00000000000000d0 .L0 
     /tmp/ccINgOFR.s:162    .text:00000000000000d4 .L0 
     /tmp/ccINgOFR.s:165    .text:00000000000000d8 .L0 
     /tmp/ccINgOFR.s:166    .text:00000000000000d8 .L0 
     /tmp/ccINgOFR.s:172    .text:00000000000000ec .L0 
     /tmp/ccINgOFR.s:173    .text:00000000000000f0 .L0 
     /tmp/ccINgOFR.s:175    .text:00000000000000f4 .L0 
     /tmp/ccINgOFR.s:176    .text:00000000000000f4 .L0 
     /tmp/ccINgOFR.s:178    .text:00000000000000f8 .L0 
     /tmp/ccINgOFR.s:181    .text:00000000000000fc .L0 
     /tmp/ccINgOFR.s:183    .text:0000000000000100 .L0 
     /tmp/ccINgOFR.s:196    .text:0000000000000100 .L0 
     /tmp/ccINgOFR.s:637    .debug_abbrev:0000000000000000 .Ldebug_abbrev0
     /tmp/ccINgOFR.s:1274   .debug_str:0000000000000093 .LASF39
     /tmp/ccINgOFR.s:1282   .debug_str:00000000000001a0 .LASF40
     /tmp/ccINgOFR.s:1316   .debug_str:00000000000002c2 .LASF41
     /tmp/ccINgOFR.s:8      .text:0000000000000000 .Ltext0
     /tmp/ccINgOFR.s:193    .text:0000000000000100 .Letext0
     /tmp/ccINgOFR.s:1256   .debug_line:0000000000000000 .Ldebug_line0
     /tmp/ccINgOFR.s:1310   .debug_str:0000000000000295 .LASF0
     /tmp/ccINgOFR.s:1298   .debug_str:0000000000000232 .LASF1
     /tmp/ccINgOFR.s:1290   .debug_str:00000000000001f0 .LASF2
     /tmp/ccINgOFR.s:1272   .debug_str:000000000000008c .LASF4
     /tmp/ccINgOFR.s:1296   .debug_str:0000000000000220 .LASF3
     /tmp/ccINgOFR.s:1264   .debug_str:0000000000000035 .LASF5
     /tmp/ccINgOFR.s:1260   .debug_str:0000000000000012 .LASF6
     /tmp/ccINgOFR.s:1284   .debug_str:00000000000001ad .LASF7
     /tmp/ccINgOFR.s:1320   .debug_str:00000000000002f9 .LASF8
     /tmp/ccINgOFR.s:1270   .debug_str:000000000000007e .LASF9
     /tmp/ccINgOFR.s:1358   .debug_str:0000000000000447 .LASF10
     /tmp/ccINgOFR.s:1286   .debug_str:00000000000001c0 .LASF11
     /tmp/ccINgOFR.s:1342   .debug_str:00000000000003ef .LASF12
     /tmp/ccINgOFR.s:1330   .debug_str:000000000000035f .LASF13
     /tmp/ccINgOFR.s:1300   .debug_str:0000000000000245 .LASF14
     /tmp/ccINgOFR.s:1280   .debug_str:000000000000018a .LASF15
     /tmp/ccINgOFR.s:1322   .debug_str:0000000000000309 .LASF16
     /tmp/ccINgOFR.s:1262   .debug_str:0000000000000025 .LASF28
     /tmp/ccINgOFR.s:1308   .debug_str:000000000000028b .LASF42
     /tmp/ccINgOFR.s:1332   .debug_str:000000000000036f .LASF17
     /tmp/ccINgOFR.s:1302   .debug_str:0000000000000251 .LASF18
     /tmp/ccINgOFR.s:1324   .debug_str:000000000000031f .LASF43
     /tmp/ccINgOFR.s:1318   .debug_str:00000000000002d5 .LASF44
     /tmp/ccINgOFR.s:1350   .debug_str:000000000000041d .LASF19
     /tmp/ccINgOFR.s:1340   .debug_str:00000000000003ce .LASF21
     /tmp/ccINgOFR.s:1328   .debug_str:0000000000000356 .LASF20
     /tmp/ccINgOFR.s:1288   .debug_str:00000000000001cf .LASF22
     /tmp/ccINgOFR.s:1334   .debug_str:0000000000000375 .LASF23
     /tmp/ccINgOFR.s:1326   .debug_str:000000000000032b .LASF24
     /tmp/ccINgOFR.s:1304   .debug_str:0000000000000257 .LASF25
     /tmp/ccINgOFR.s:1338   .debug_str:000000000000039b .LASF26
     /tmp/ccINgOFR.s:1354   .debug_str:0000000000000437 .LASF45
     /tmp/ccINgOFR.s:1312   .debug_str:00000000000002a2 .LASF27
     /tmp/ccINgOFR.s:1276   .debug_str:0000000000000157 .LASF46
     /tmp/ccINgOFR.s:1306   .debug_str:0000000000000272 .LASF29
GAS LISTING /tmp/ccINgOFR.s 			page 8


     /tmp/ccINgOFR.s:1278   .debug_str:000000000000016e .LASF30
     /tmp/ccINgOFR.s:1346   .debug_str:0000000000000406 .LASF31
     /tmp/ccINgOFR.s:1292   .debug_str:00000000000001fe .LASF32
     /tmp/ccINgOFR.s:1258   .debug_str:0000000000000000 .LASF47
     /tmp/ccINgOFR.s:1268   .debug_str:0000000000000043 .LASF48
     /tmp/ccINgOFR.s:1336   .debug_str:0000000000000388 .LASF33
     /tmp/ccINgOFR.s:1266   .debug_str:000000000000003c .LASF34
     /tmp/ccINgOFR.s:147    .text:00000000000000c0 .LFB3
     /tmp/ccINgOFR.s:184    .text:0000000000000100 .LFE3
     /tmp/ccINgOFR.s:1171   .debug_loc:0000000000000000 .LLST3
     /tmp/ccINgOFR.s:167    .text:00000000000000e0 .LVL13
     /tmp/ccINgOFR.s:170    .text:00000000000000ec .LVL14
     /tmp/ccINgOFR.s:1314   .debug_str:00000000000002b2 .LASF35
     /tmp/ccINgOFR.s:1344   .debug_str:00000000000003ff .LASF36
     /tmp/ccINgOFR.s:96     .text:0000000000000080 .LFB2
     /tmp/ccINgOFR.s:133    .text:00000000000000c0 .LFE2
     /tmp/ccINgOFR.s:1189   .debug_loc:000000000000004c .LLST2
     /tmp/ccINgOFR.s:116    .text:00000000000000a0 .LVL9
     /tmp/ccINgOFR.s:119    .text:00000000000000ac .LVL10
     /tmp/ccINgOFR.s:1352   .debug_str:0000000000000427 .LASF49
     /tmp/ccINgOFR.s:1294   .debug_str:000000000000021a .LASF50
     /tmp/ccINgOFR.s:55     .text:0000000000000040 .LFB1
     /tmp/ccINgOFR.s:90     .text:0000000000000080 .LFE1
     /tmp/ccINgOFR.s:1207   .debug_loc:0000000000000098 .LLST1
     /tmp/ccINgOFR.s:73     .text:0000000000000060 .LVL5
     /tmp/ccINgOFR.s:76     .text:000000000000006c .LVL6
     /tmp/ccINgOFR.s:1348   .debug_str:0000000000000410 .LASF37
     /tmp/ccINgOFR.s:1356   .debug_str:0000000000000441 .LASF38
     /tmp/ccINgOFR.s:13     .text:0000000000000000 .LFB0
     /tmp/ccINgOFR.s:49     .text:0000000000000040 .LFE0
     /tmp/ccINgOFR.s:1225   .debug_loc:00000000000000e4 .LLST0
     /tmp/ccINgOFR.s:32     .text:0000000000000020 .LVL1
     /tmp/ccINgOFR.s:35     .text:000000000000002c .LVL2
     /tmp/ccINgOFR.s:152    .text:00000000000000c0 .LVL12
     /tmp/ccINgOFR.s:179    .text:00000000000000f8 .LVL15
     /tmp/ccINgOFR.s:101    .text:0000000000000080 .LVL8
     /tmp/ccINgOFR.s:128    .text:00000000000000b8 .LVL11
     /tmp/ccINgOFR.s:58     .text:0000000000000040 .LVL4
     /tmp/ccINgOFR.s:85     .text:0000000000000078 .LVL7
     /tmp/ccINgOFR.s:17     .text:0000000000000000 .LVL0
     /tmp/ccINgOFR.s:44     .text:0000000000000038 .LVL3
     /tmp/ccINgOFR.s:197    .debug_info:0000000000000000 .Ldebug_info0
     /tmp/ccINgOFR.s:136    .gcc_except_table:0000000000000000 .LLSDA2
     /tmp/ccINgOFR.s:186    .gcc_except_table:0000000000000004 .LLSDA3

UNDEFINED SYMBOLS
_ZN15MemoryAllocator11getInstanceEv
_ZN15MemoryAllocator9mem_allocEm
_ZN15MemoryAllocator8mem_freeEPv
__gxx_personality_v0
