GAS LISTING /tmp/ccMqjbjB.s 			page 1


   1              		.file	"_new.cpp"
   2              		.option nopic
   3              		.option norelax
   4              		.attribute arch, "rv64i2p0_m2p0_a2p0"
   5              		.attribute unaligned_access, 0
   6              		.attribute stack_align, 16
   7              		.text
   8              	.Ltext0:
   9              		.align	2
  10              		.globl	_Znwm
  12              	_Znwm:
  13              	.LFB20:
  14              		.file 1 "src/_new.cpp"
   1:src/_new.cpp  **** //
   2:src/_new.cpp  **** // Created by marko on 20.4.22..
   3:src/_new.cpp  **** //
   4:src/_new.cpp  **** 
   5:src/_new.cpp  **** // #include "../lib/mem.h"
   6:src/_new.cpp  **** #include "../h/mem.hpp"
   7:src/_new.cpp  **** 
   8:src/_new.cpp  **** using size_t = decltype(sizeof(0));
   9:src/_new.cpp  **** 
  10:src/_new.cpp  **** void *operator new(size_t n)
  11:src/_new.cpp  **** {
  15              		.loc 1 11 1
  16              		.cfi_startproc
  17              	.LVL0:
  18 0000 130101FE 		addi	sp,sp,-32
  19              		.cfi_def_cfa_offset 32
  20 0004 233C1100 		sd	ra,24(sp)
  21 0008 23388100 		sd	s0,16(sp)
  22 000c 23349100 		sd	s1,8(sp)
  23              		.cfi_offset 1, -8
  24              		.cfi_offset 8, -16
  25              		.cfi_offset 9, -24
  26 0010 13040102 		addi	s0,sp,32
  27              		.cfi_def_cfa 8, 0
  28 0014 93040500 		mv	s1,a0
  12:src/_new.cpp  ****     return MemoryAllocator::getInstance()->mem_alloc(n);
  29              		.loc 1 12 5
  30              		.loc 1 12 53 is_stmt 0
  31 0018 97000000 		call	_ZN15MemoryAllocator11getInstanceEv
  31      E7800000 
  32              	.LVL1:
  33 0020 93850400 		mv	a1,s1
  34 0024 97000000 		call	_ZN15MemoryAllocator9mem_allocEm
  34      E7800000 
  35              	.LVL2:
  13:src/_new.cpp  **** }
  36              		.loc 1 13 1
  37 002c 83308101 		ld	ra,24(sp)
  38              		.cfi_restore 1
  39 0030 03340101 		ld	s0,16(sp)
  40              		.cfi_restore 8
  41              		.cfi_def_cfa 2, 32
  42 0034 83348100 		ld	s1,8(sp)
  43              		.cfi_restore 9
GAS LISTING /tmp/ccMqjbjB.s 			page 2


  44              	.LVL3:
  45 0038 13010102 		addi	sp,sp,32
  46              		.cfi_def_cfa_offset 0
  47 003c 67800000 		jr	ra
  48              		.cfi_endproc
  49              	.LFE20:
  51              		.align	2
  52              		.globl	_Znam
  54              	_Znam:
  55              	.LFB21:
  14:src/_new.cpp  **** 
  15:src/_new.cpp  **** void *operator new[](size_t n)
  16:src/_new.cpp  **** {
  56              		.loc 1 16 1 is_stmt 1
  57              		.cfi_startproc
  58              	.LVL4:
  59 0040 130101FE 		addi	sp,sp,-32
  60              		.cfi_def_cfa_offset 32
  61 0044 233C1100 		sd	ra,24(sp)
  62 0048 23388100 		sd	s0,16(sp)
  63 004c 23349100 		sd	s1,8(sp)
  64              		.cfi_offset 1, -8
  65              		.cfi_offset 8, -16
  66              		.cfi_offset 9, -24
  67 0050 13040102 		addi	s0,sp,32
  68              		.cfi_def_cfa 8, 0
  69 0054 93040500 		mv	s1,a0
  17:src/_new.cpp  ****     return MemoryAllocator::getInstance()->mem_alloc(n);
  70              		.loc 1 17 5
  71              		.loc 1 17 53 is_stmt 0
  72 0058 97000000 		call	_ZN15MemoryAllocator11getInstanceEv
  72      E7800000 
  73              	.LVL5:
  74 0060 93850400 		mv	a1,s1
  75 0064 97000000 		call	_ZN15MemoryAllocator9mem_allocEm
  75      E7800000 
  76              	.LVL6:
  18:src/_new.cpp  **** }
  77              		.loc 1 18 1
  78 006c 83308101 		ld	ra,24(sp)
  79              		.cfi_restore 1
  80 0070 03340101 		ld	s0,16(sp)
  81              		.cfi_restore 8
  82              		.cfi_def_cfa 2, 32
  83 0074 83348100 		ld	s1,8(sp)
  84              		.cfi_restore 9
  85              	.LVL7:
  86 0078 13010102 		addi	sp,sp,32
  87              		.cfi_def_cfa_offset 0
  88 007c 67800000 		jr	ra
  89              		.cfi_endproc
  90              	.LFE21:
  92              		.align	2
  93              		.globl	_ZdlPv
  95              	_ZdlPv:
  96              	.LFB22:
  19:src/_new.cpp  **** 
GAS LISTING /tmp/ccMqjbjB.s 			page 3


  20:src/_new.cpp  **** void operator delete(void *p) noexcept
  21:src/_new.cpp  **** {
  97              		.loc 1 21 1 is_stmt 1
  98              		.cfi_startproc
  99              		.cfi_personality 0x9b,DW.ref.__gxx_personality_v0
 100              		.cfi_lsda 0x1b,.LLSDA22
 101              	.LVL8:
 102 0080 130101FE 		addi	sp,sp,-32
 103              		.cfi_def_cfa_offset 32
 104 0084 233C1100 		sd	ra,24(sp)
 105 0088 23388100 		sd	s0,16(sp)
 106 008c 23349100 		sd	s1,8(sp)
 107              		.cfi_offset 1, -8
 108              		.cfi_offset 8, -16
 109              		.cfi_offset 9, -24
 110 0090 13040102 		addi	s0,sp,32
 111              		.cfi_def_cfa 8, 0
 112 0094 93040500 		mv	s1,a0
  22:src/_new.cpp  ****     MemoryAllocator::getInstance()->mem_free(p);
 113              		.loc 1 22 5
 114              		.loc 1 22 45 is_stmt 0
 115 0098 97000000 		call	_ZN15MemoryAllocator11getInstanceEv
 115      E7800000 
 116              	.LVL9:
 117 00a0 93850400 		mv	a1,s1
 118 00a4 97000000 		call	_ZN15MemoryAllocator8mem_freeEPv
 118      E7800000 
 119              	.LVL10:
  23:src/_new.cpp  **** }
 120              		.loc 1 23 1
 121 00ac 83308101 		ld	ra,24(sp)
 122              		.cfi_restore 1
 123 00b0 03340101 		ld	s0,16(sp)
 124              		.cfi_restore 8
 125              		.cfi_def_cfa 2, 32
 126 00b4 83348100 		ld	s1,8(sp)
 127              		.cfi_restore 9
 128              	.LVL11:
 129 00b8 13010102 		addi	sp,sp,32
 130              		.cfi_def_cfa_offset 0
 131 00bc 67800000 		jr	ra
 132              		.cfi_endproc
 133              	.LFE22:
 134              		.globl	__gxx_personality_v0
 135              		.section	.gcc_except_table,"aw",@progbits
 136              	.LLSDA22:
 137 0000 FF       		.byte	0xff
 138 0001 FF       		.byte	0xff
 139 0002 03       		.byte	0x3
 140 0003 00       		.byte	0
 141              		.text
 143              		.align	2
 144              		.globl	_ZdaPv
 146              	_ZdaPv:
 147              	.LFB23:
  24:src/_new.cpp  **** 
  25:src/_new.cpp  **** void operator delete[](void *p) noexcept
GAS LISTING /tmp/ccMqjbjB.s 			page 4


  26:src/_new.cpp  **** {
 148              		.loc 1 26 1 is_stmt 1
 149              		.cfi_startproc
 150              		.cfi_personality 0x9b,DW.ref.__gxx_personality_v0
 151              		.cfi_lsda 0x1b,.LLSDA23
 152              	.LVL12:
 153 00c0 130101FE 		addi	sp,sp,-32
 154              		.cfi_def_cfa_offset 32
 155 00c4 233C1100 		sd	ra,24(sp)
 156 00c8 23388100 		sd	s0,16(sp)
 157 00cc 23349100 		sd	s1,8(sp)
 158              		.cfi_offset 1, -8
 159              		.cfi_offset 8, -16
 160              		.cfi_offset 9, -24
 161 00d0 13040102 		addi	s0,sp,32
 162              		.cfi_def_cfa 8, 0
 163 00d4 93040500 		mv	s1,a0
  27:src/_new.cpp  ****     MemoryAllocator::getInstance()->mem_free(p);
 164              		.loc 1 27 5
 165              		.loc 1 27 45 is_stmt 0
 166 00d8 97000000 		call	_ZN15MemoryAllocator11getInstanceEv
 166      E7800000 
 167              	.LVL13:
 168 00e0 93850400 		mv	a1,s1
 169 00e4 97000000 		call	_ZN15MemoryAllocator8mem_freeEPv
 169      E7800000 
 170              	.LVL14:
  28:src/_new.cpp  **** }...
 171              		.loc 1 28 1
 172 00ec 83308101 		ld	ra,24(sp)
 173              		.cfi_restore 1
 174 00f0 03340101 		ld	s0,16(sp)
 175              		.cfi_restore 8
 176              		.cfi_def_cfa 2, 32
 177 00f4 83348100 		ld	s1,8(sp)
 178              		.cfi_restore 9
 179              	.LVL15:
 180 00f8 13010102 		addi	sp,sp,32
 181              		.cfi_def_cfa_offset 0
 182 00fc 67800000 		jr	ra
 183              		.cfi_endproc
 184              	.LFE23:
 185              		.section	.gcc_except_table
 186              	.LLSDA23:
 187 0004 FF       		.byte	0xff
 188 0005 FF       		.byte	0xff
 189 0006 03       		.byte	0x3
 190 0007 00       		.byte	0
 191              		.text
 193              	.Letext0:
 194              		.file 2 "src/../h/../lib/hw.h"
 195              		.file 3 "src/../h/mem.hpp"
 196              		.file 4 "src/../h/../test/../h/syscall_c.h"
 1396              		.align	3
 1399              	DW.ref.__gxx_personality_v0:
 1400 0000 00000000 		.dword	__gxx_personality_v0
 1400      00000000 
GAS LISTING /tmp/ccMqjbjB.s 			page 5


 1401              		.ident	"GCC: () 8.3.0"
GAS LISTING /tmp/ccMqjbjB.s 			page 6

