GAS LISTING /tmp/cc1tRRG7.s 			page 1


   1              		.file	"main.cpp"
   2              		.option nopic
   3              		.option norelax
   4              		.attribute arch, "rv64i2p0_m2p0_a2p0"
   5              		.attribute unaligned_access, 0
   6              		.attribute stack_align, 16
   7              		.text
   8              	.Ltext0:
   9              		.align	2
  10              		.globl	_Z15userMainWrapperPv
  12              	_Z15userMainWrapperPv:
  13              	.LFB87:
  14              		.file 1 "src/main.cpp"
   1:src/main.cpp  **** //
   2:src/main.cpp  **** // Created by marko on 20.4.22..
   3:src/main.cpp  **** //
   4:src/main.cpp  **** 
   5:src/main.cpp  **** #include "../h/tcb.hpp"
   6:src/main.cpp  **** #include "../h/workers.hpp"
   7:src/main.cpp  **** #include "../h/print.hpp"
   8:src/main.cpp  **** #include "../h/riscv.hpp"
   9:src/main.cpp  **** #include "../h/syscall_c.h"
  10:src/main.cpp  **** #include "../h/syscall_cpp.hpp"
  11:src/main.cpp  **** #include "../h/_console.hpp"
  12:src/main.cpp  **** 
  13:src/main.cpp  **** void userMain();
  14:src/main.cpp  **** 
  15:src/main.cpp  **** void userMainWrapper(void* arg)
  16:src/main.cpp  **** {
  15              		.loc 1 16 1
  16              		.cfi_startproc
  17              	.LVL0:
  18 0000 130101FF 		addi	sp,sp,-16
  19              		.cfi_def_cfa_offset 16
  20 0004 23348100 		sd	s0,8(sp)
  21              		.cfi_offset 8, -8
  22 0008 13040101 		addi	s0,sp,16
  23              		.cfi_def_cfa 8, 0
  17:src/main.cpp  ****     // debug_print("Starting userMain\n");
  18:src/main.cpp  ****     // userMain();
  19:src/main.cpp  ****     // putc('A');
  20:src/main.cpp  ****     return;
  24              		.loc 1 20 5
  21:src/main.cpp  **** }
  25              		.loc 1 21 1 is_stmt 0
  26 000c 03348100 		ld	s0,8(sp)
  27              		.cfi_restore 8
  28              		.cfi_def_cfa 2, 16
  29 0010 13010101 		addi	sp,sp,16
  30              		.cfi_def_cfa_offset 0
  31 0014 67800000 		jr	ra
  32              		.cfi_endproc
  33              	.LFE87:
  35              		.align	2
  36              		.globl	main
  38              	main:
  39              	.LFB88:
GAS LISTING /tmp/cc1tRRG7.s 			page 2


  22:src/main.cpp  **** 
  23:src/main.cpp  **** int main()
  24:src/main.cpp  **** {
  40              		.loc 1 24 1 is_stmt 1
  41              		.cfi_startproc
  42 0018 130101FD 		addi	sp,sp,-48
  43              		.cfi_def_cfa_offset 48
  44 001c 23341102 		sd	ra,40(sp)
  45 0020 23308102 		sd	s0,32(sp)
  46 0024 233C9100 		sd	s1,24(sp)
  47 0028 23382101 		sd	s2,16(sp)
  48 002c 23343101 		sd	s3,8(sp)
  49              		.cfi_offset 1, -8
  50              		.cfi_offset 8, -16
  51              		.cfi_offset 9, -24
  52              		.cfi_offset 18, -32
  53              		.cfi_offset 19, -40
  54 0030 13040103 		addi	s0,sp,48
  55              		.cfi_def_cfa 8, 0
  25:src/main.cpp  ****     thread_t main_handle;
  56              		.loc 1 25 5
  26:src/main.cpp  ****     // thread_t userMain_handle;
  27:src/main.cpp  **** 
  28:src/main.cpp  ****     // Initialize console.
  29:src/main.cpp  ****     debug_print("Initializing console\n");
  57              		.loc 1 29 5
  58              		.loc 1 29 16 is_stmt 0
  59 0034 17050000 		lla	a0,.LC0
  59      13050500 
  60 003c 97000000 		call	_Z11debug_printPKc
  60      E7800000 
  61              	.LVL1:
  30:src/main.cpp  ****     _console::_console_init();
  62              		.loc 1 30 5 is_stmt 1
  63              	.LBB16:
  64              	.LBB17:
  65              		.file 2 "src/../h/_console.hpp"
   1:src/../h/_console.hpp **** #ifndef _CONSOLE_HPP
   2:src/../h/_console.hpp **** #define _CONSOLE_HPP
   3:src/../h/_console.hpp **** 
   4:src/../h/_console.hpp **** #include "circular_buffer.hpp"
   5:src/../h/_console.hpp **** #include "print.hpp"
   6:src/../h/_console.hpp **** 
   7:src/../h/_console.hpp **** class _console {
   8:src/../h/_console.hpp ****     public:
   9:src/../h/_console.hpp ****     static void _console_init() {
  10:src/../h/_console.hpp ****         debug_print("Creating buffers\n");
  66              		.loc 2 10 9
  67              		.loc 2 10 20 is_stmt 0
  68 0044 17050000 		lla	a0,.LC1
  68      13050500 
  69 004c 97000000 		call	_Z11debug_printPKc
  69      E7800000 
  70              	.LVL2:
  11:src/../h/_console.hpp ****         buffer_in_ = CircularBuffer<char>::createInstance(size_);
  71              		.loc 2 11 9 is_stmt 1
  72              		.loc 2 11 58 is_stmt 0
GAS LISTING /tmp/cc1tRRG7.s 			page 3


  73 0054 17090000 		lla	s2,_ZN8_console5size_E
  73      13090900 
  74 005c 83290900 		lw	s3,0(s2)
  75              	.LVL3:
  76              	.LBB18:
  77              	.LBB19:
  78              		.file 3 "src/../h/circular_buffer.hpp"
   1:src/../h/circular_buffer.hpp **** #ifndef CIRCULAR_BUFFER_HPP
   2:src/../h/circular_buffer.hpp **** #define CIRCULAR_BUFFER_HPP
   3:src/../h/circular_buffer.hpp **** 
   4:src/../h/circular_buffer.hpp **** #include "../h/syscall_c.h"
   5:src/../h/circular_buffer.hpp **** #include "semaphore.hpp"
   6:src/../h/circular_buffer.hpp **** #include "mem.hpp"
   7:src/../h/circular_buffer.hpp **** 
   8:src/../h/circular_buffer.hpp **** template<typename T>
   9:src/../h/circular_buffer.hpp **** class CircularBuffer {
  10:src/../h/circular_buffer.hpp ****     public:
  11:src/../h/circular_buffer.hpp ****     static CircularBuffer<T> *createInstance(int size) {
  12:src/../h/circular_buffer.hpp ****         CircularBuffer<T> *instance = (CircularBuffer<T>*)MemoryAllocator::getInstance()->mem_alloc
  79              		.loc 3 12 100
  80 0060 97000000 		call	_ZN15MemoryAllocator11getInstanceEv
  80      E7800000 
  81              	.LVL4:
  82 0068 93050003 		li	a1,48
  83 006c 97000000 		call	_ZN15MemoryAllocator9mem_allocEm
  83      E7800000 
  84              	.LVL5:
  85 0074 93040500 		mv	s1,a0
  86              	.LVL6:
  13:src/../h/circular_buffer.hpp ****         instance->first_idx_ = 0;
  87              		.loc 3 13 9
  88 0078 232C0500 		sw	zero,24(a0)
  14:src/../h/circular_buffer.hpp ****         instance->last_idx_ = 0;
  89              		.loc 3 14 9
  90 007c 232E0500 		sw	zero,28(a0)
  15:src/../h/circular_buffer.hpp ****         instance->size_ = size+1;
  91              		.loc 3 15 31
  92 0080 9B871900 		addiw	a5,s3,1
  93              		.loc 3 15 9
  94 0084 2320F502 		sw	a5,32(a0)
  16:src/../h/circular_buffer.hpp ****         instance->item_ = _semaphore::open(0);
  95              		.loc 3 16 43
  96 0088 13050000 		li	a0,0
  97 008c 97000000 		call	_ZN10_semaphore4openEj
  97      E7800000 
  98              	.LVL7:
  99              		.loc 3 16 9
 100 0094 23B0A400 		sd	a0,0(s1)
  17:src/../h/circular_buffer.hpp ****         instance->space_ = _semaphore::open(size);
 101              		.loc 3 17 44
 102 0098 13850900 		mv	a0,s3
 103 009c 97000000 		call	_ZN10_semaphore4openEj
 103      E7800000 
 104              	.LVL8:
 105              		.loc 3 17 9
 106 00a4 23B4A400 		sd	a0,8(s1)
  18:src/../h/circular_buffer.hpp ****         instance->mutex_ = _semaphore::open(1);
GAS LISTING /tmp/cc1tRRG7.s 			page 4


 107              		.loc 3 18 44
 108 00a8 13051000 		li	a0,1
 109 00ac 97000000 		call	_ZN10_semaphore4openEj
 109      E7800000 
 110              	.LVL9:
 111              		.loc 3 18 9
 112 00b4 23B8A400 		sd	a0,16(s1)
  19:src/../h/circular_buffer.hpp ****         instance->buffer_ = (T*)MemoryAllocator::getInstance()->mem_alloc(sizeof(T) * instance->siz
 113              		.loc 3 19 74
 114 00b8 97000000 		call	_ZN15MemoryAllocator11getInstanceEv
 114      E7800000 
 115              	.LVL10:
 116 00c0 83A50402 		lw	a1,32(s1)
 117 00c4 97000000 		call	_ZN15MemoryAllocator9mem_allocEm
 117      E7800000 
 118              	.LVL11:
 119              		.loc 3 19 9
 120 00cc 23B4A402 		sd	a0,40(s1)
 121              	.LVL12:
 122              	.LBE19:
 123              	.LBE18:
 124              		.loc 2 11 20
 125 00d0 97070000 		sd	s1,_ZN8_console10buffer_in_E,a5
 125      23B09700 
  12:src/../h/_console.hpp ****         buffer_out_ = CircularBuffer<char>::createInstance(size_);
 126              		.loc 2 12 9 is_stmt 1
 127              		.loc 2 12 59 is_stmt 0
 128 00d8 03290900 		lw	s2,0(s2)
 129              	.LVL13:
 130              	.LBB20:
 131              	.LBB21:
  12:src/../h/circular_buffer.hpp ****         instance->first_idx_ = 0;
 132              		.loc 3 12 100
 133 00dc 97000000 		call	_ZN15MemoryAllocator11getInstanceEv
 133      E7800000 
 134              	.LVL14:
 135 00e4 93050003 		li	a1,48
 136 00e8 97000000 		call	_ZN15MemoryAllocator9mem_allocEm
 136      E7800000 
 137              	.LVL15:
 138 00f0 93040500 		mv	s1,a0
 139              	.LVL16:
  13:src/../h/circular_buffer.hpp ****         instance->last_idx_ = 0;
 140              		.loc 3 13 9
 141 00f4 232C0500 		sw	zero,24(a0)
  14:src/../h/circular_buffer.hpp ****         instance->size_ = size+1;
 142              		.loc 3 14 9
 143 00f8 232E0500 		sw	zero,28(a0)
  15:src/../h/circular_buffer.hpp ****         instance->item_ = _semaphore::open(0);
 144              		.loc 3 15 31
 145 00fc 9B071900 		addiw	a5,s2,1
  15:src/../h/circular_buffer.hpp ****         instance->item_ = _semaphore::open(0);
 146              		.loc 3 15 9
 147 0100 2320F502 		sw	a5,32(a0)
  16:src/../h/circular_buffer.hpp ****         instance->space_ = _semaphore::open(size);
 148              		.loc 3 16 43
 149 0104 13050000 		li	a0,0
GAS LISTING /tmp/cc1tRRG7.s 			page 5


 150 0108 97000000 		call	_ZN10_semaphore4openEj
 150      E7800000 
 151              	.LVL17:
  16:src/../h/circular_buffer.hpp ****         instance->space_ = _semaphore::open(size);
 152              		.loc 3 16 9
 153 0110 23B0A400 		sd	a0,0(s1)
  17:src/../h/circular_buffer.hpp ****         instance->mutex_ = _semaphore::open(1);
 154              		.loc 3 17 44
 155 0114 13050900 		mv	a0,s2
 156 0118 97000000 		call	_ZN10_semaphore4openEj
 156      E7800000 
 157              	.LVL18:
  17:src/../h/circular_buffer.hpp ****         instance->mutex_ = _semaphore::open(1);
 158              		.loc 3 17 9
 159 0120 23B4A400 		sd	a0,8(s1)
  18:src/../h/circular_buffer.hpp ****         instance->buffer_ = (T*)MemoryAllocator::getInstance()->mem_alloc(sizeof(T) * instance->siz
 160              		.loc 3 18 44
 161 0124 13051000 		li	a0,1
 162 0128 97000000 		call	_ZN10_semaphore4openEj
 162      E7800000 
 163              	.LVL19:
  18:src/../h/circular_buffer.hpp ****         instance->buffer_ = (T*)MemoryAllocator::getInstance()->mem_alloc(sizeof(T) * instance->siz
 164              		.loc 3 18 9
 165 0130 23B8A400 		sd	a0,16(s1)
 166              		.loc 3 19 74
 167 0134 97000000 		call	_ZN15MemoryAllocator11getInstanceEv
 167      E7800000 
 168              	.LVL20:
 169 013c 83A50402 		lw	a1,32(s1)
 170 0140 97000000 		call	_ZN15MemoryAllocator9mem_allocEm
 170      E7800000 
 171              	.LVL21:
 172              		.loc 3 19 9
 173 0148 23B4A402 		sd	a0,40(s1)
 174              	.LVL22:
 175              	.LBE21:
 176              	.LBE20:
 177              		.loc 2 12 21
 178 014c 97070000 		sd	s1,_ZN8_console11buffer_out_E,a5
 178      23B09700 
  13:src/../h/_console.hpp ****         debug_print("Buffers created\n");
 179              		.loc 2 13 9 is_stmt 1
 180              		.loc 2 13 20 is_stmt 0
 181 0154 17050000 		lla	a0,.LC2
 181      13050500 
 182 015c 97000000 		call	_Z11debug_printPKc
 182      E7800000 
 183              	.LVL23:
 184              	.LBE17:
 185              	.LBE16:
  31:src/main.cpp  **** 
  32:src/main.cpp  ****     // We create threads directly through TCB because we do not yet have
  33:src/main.cpp  ****     // interrupts enabled.
  34:src/main.cpp  ****     debug_print("Creating main thread\n");
 186              		.loc 1 34 5 is_stmt 1
 187              		.loc 1 34 16 is_stmt 0
 188 0164 17050000 		lla	a0,.LC3
GAS LISTING /tmp/cc1tRRG7.s 			page 6


 188      13050500 
 189 016c 97000000 		call	_Z11debug_printPKc
 189      E7800000 
 190              	.LVL24:
  35:src/main.cpp  ****     main_handle = TCB::createThread(nullptr, nullptr);
 191              		.loc 1 35 5 is_stmt 1
 192              		.loc 1 35 36 is_stmt 0
 193 0174 93050000 		li	a1,0
 194 0178 13050000 		li	a0,0
 195 017c 97000000 		call	_ZN3TCB12createThreadEPFvPvES0_
 195      E7800000 
 196              	.LVL25:
 197 0184 93040500 		mv	s1,a0
 198              	.LVL26:
  36:src/main.cpp  ****     debug_print("Main thread handle: \n");
 199              		.loc 1 36 5 is_stmt 1
 200              		.loc 1 36 16 is_stmt 0
 201 0188 17050000 		lla	a0,.LC4
 201      13050500 
 202 0190 97000000 		call	_Z11debug_printPKc
 202      E7800000 
 203              	.LVL27:
  37:src/main.cpp  ****     debug_print((uint64)main_handle);
 204              		.loc 1 37 5 is_stmt 1
 205              		.loc 1 37 16 is_stmt 0
 206 0198 13850400 		mv	a0,s1
 207 019c 97000000 		call	_Z11debug_printm
 207      E7800000 
 208              	.LVL28:
  38:src/main.cpp  ****     debug_print("\n");
 209              		.loc 1 38 5 is_stmt 1
 210              		.loc 1 38 16 is_stmt 0
 211 01a4 17050000 		lla	a0,.LC5
 211      13050500 
 212 01ac 97000000 		call	_Z11debug_printPKc
 212      E7800000 
 213              	.LVL29:
  39:src/main.cpp  **** 
  40:src/main.cpp  ****     // debug_print("Creating userMain thread\n");
  41:src/main.cpp  ****     // userMain_handle = TCB::createThread(userMainWrapper, nullptr);
  42:src/main.cpp  ****     // debug_print("UserMain thread handle: \n");
  43:src/main.cpp  ****     // debug_print((uint64)userMain_handle);
  44:src/main.cpp  ****     // debug_print("\n");
  45:src/main.cpp  **** 
  46:src/main.cpp  ****     debug_print("Setting running to main thread\n");
 214              		.loc 1 46 5 is_stmt 1
 215              		.loc 1 46 16 is_stmt 0
 216 01b4 17050000 		lla	a0,.LC6
 216      13050500 
 217 01bc 97000000 		call	_Z11debug_printPKc
 217      E7800000 
 218              	.LVL30:
  47:src/main.cpp  ****     TCB::running = main_handle;
 219              		.loc 1 47 5 is_stmt 1
 220              		.loc 1 47 18 is_stmt 0
 221 01c4 97070000 		sd	s1,_ZN3TCB7runningE,a5
 221      23B09700 
GAS LISTING /tmp/cc1tRRG7.s 			page 7


  48:src/main.cpp  **** 
  49:src/main.cpp  ****     debug_print("Setting supervisor trap and enabling interrupts\n");
 222              		.loc 1 49 5 is_stmt 1
 223              		.loc 1 49 16 is_stmt 0
 224 01cc 17050000 		lla	a0,.LC7
 224      13050500 
 225 01d4 97000000 		call	_Z11debug_printPKc
 225      E7800000 
 226              	.LVL31:
  50:src/main.cpp  ****     Riscv::w_stvec((uint64) &Riscv::supervisorTrap);
 227              		.loc 1 50 5 is_stmt 1
 228              		.loc 1 50 19 is_stmt 0
 229 01dc 97070000 		lla	a5,_ZN5Riscv14supervisorTrapEv
 229      93870700 
 230              	.LVL32:
 231              	.LBB22:
 232              	.LBB23:
 233              		.file 4 "src/../h/riscv.hpp"
   1:src/../h/riscv.hpp **** //
   2:src/../h/riscv.hpp **** // Created by marko on 20.4.22..
   3:src/../h/riscv.hpp **** //
   4:src/../h/riscv.hpp **** 
   5:src/../h/riscv.hpp **** #ifndef OS1_VEZBE07_RISCV_CONTEXT_SWITCH_2_INTERRUPT_RISCV_HPP
   6:src/../h/riscv.hpp **** #define OS1_VEZBE07_RISCV_CONTEXT_SWITCH_2_INTERRUPT_RISCV_HPP
   7:src/../h/riscv.hpp **** 
   8:src/../h/riscv.hpp **** #include "../lib/hw.h"
   9:src/../h/riscv.hpp **** 
  10:src/../h/riscv.hpp **** extern const size_t DEFAULT_STACK_SIZE;
  11:src/../h/riscv.hpp **** extern const time_t DEFAULT_TIME_SLICE;
  12:src/../h/riscv.hpp **** 
  13:src/../h/riscv.hpp **** class Riscv
  14:src/../h/riscv.hpp **** {
  15:src/../h/riscv.hpp **** public:
  16:src/../h/riscv.hpp **** 
  17:src/../h/riscv.hpp ****     // pop sstatus.spp and sstatus.spie bits (has to be a non inline function)
  18:src/../h/riscv.hpp ****     static void popSppSpie();
  19:src/../h/riscv.hpp **** 
  20:src/../h/riscv.hpp ****     // read register scause
  21:src/../h/riscv.hpp ****     static uint64 r_scause();
  22:src/../h/riscv.hpp **** 
  23:src/../h/riscv.hpp ****     // write register scause
  24:src/../h/riscv.hpp ****     static void w_scause(uint64 scause);
  25:src/../h/riscv.hpp **** 
  26:src/../h/riscv.hpp ****     // read register sepc
  27:src/../h/riscv.hpp ****     static uint64 r_sepc();
  28:src/../h/riscv.hpp **** 
  29:src/../h/riscv.hpp ****     // write register sepc
  30:src/../h/riscv.hpp ****     static void w_sepc(uint64 sepc);
  31:src/../h/riscv.hpp **** 
  32:src/../h/riscv.hpp ****     // read register stvec
  33:src/../h/riscv.hpp ****     static uint64 r_stvec();
  34:src/../h/riscv.hpp **** 
  35:src/../h/riscv.hpp ****     // write register stvec
  36:src/../h/riscv.hpp ****     static void w_stvec(uint64 stvec);
  37:src/../h/riscv.hpp **** 
  38:src/../h/riscv.hpp ****     // read register stval
  39:src/../h/riscv.hpp ****     static uint64 r_stval();
GAS LISTING /tmp/cc1tRRG7.s 			page 8


  40:src/../h/riscv.hpp **** 
  41:src/../h/riscv.hpp ****     // write register stval
  42:src/../h/riscv.hpp ****     static void w_stval(uint64 stval);
  43:src/../h/riscv.hpp **** 
  44:src/../h/riscv.hpp ****     enum BitMaskSip
  45:src/../h/riscv.hpp ****     {
  46:src/../h/riscv.hpp ****         SIP_SSIP = (1 << 1),
  47:src/../h/riscv.hpp ****         SIP_STIP = (1 << 5),
  48:src/../h/riscv.hpp ****         SIP_SEIP = (1 << 9),
  49:src/../h/riscv.hpp ****     };
  50:src/../h/riscv.hpp **** 
  51:src/../h/riscv.hpp ****     // mask set register sip
  52:src/../h/riscv.hpp ****     static void ms_sip(uint64 mask);
  53:src/../h/riscv.hpp **** 
  54:src/../h/riscv.hpp ****     // mask clear register sip
  55:src/../h/riscv.hpp ****     static void mc_sip(uint64 mask);
  56:src/../h/riscv.hpp **** 
  57:src/../h/riscv.hpp ****     // read register sip
  58:src/../h/riscv.hpp ****     static uint64 r_sip();
  59:src/../h/riscv.hpp **** 
  60:src/../h/riscv.hpp ****     // write register sip
  61:src/../h/riscv.hpp ****     static void w_sip(uint64 sip);
  62:src/../h/riscv.hpp **** 
  63:src/../h/riscv.hpp ****     enum BitMaskSstatus
  64:src/../h/riscv.hpp ****     {
  65:src/../h/riscv.hpp ****         SSTATUS_SIE = (1 << 1),
  66:src/../h/riscv.hpp ****         SSTATUS_SPIE = (1 << 5),
  67:src/../h/riscv.hpp ****         SSTATUS_SPP = (1 << 8),
  68:src/../h/riscv.hpp ****     };
  69:src/../h/riscv.hpp **** 
  70:src/../h/riscv.hpp ****     // mask set register sstatus
  71:src/../h/riscv.hpp ****     static void ms_sstatus(uint64 mask);
  72:src/../h/riscv.hpp **** 
  73:src/../h/riscv.hpp ****     // mask clear register sstatus
  74:src/../h/riscv.hpp ****     static void mc_sstatus(uint64 mask);
  75:src/../h/riscv.hpp **** 
  76:src/../h/riscv.hpp ****     // read register sstatus
  77:src/../h/riscv.hpp ****     static uint64 r_sstatus();
  78:src/../h/riscv.hpp **** 
  79:src/../h/riscv.hpp ****     // write register sstatus
  80:src/../h/riscv.hpp ****     static void w_sstatus(uint64 sstatus);
  81:src/../h/riscv.hpp **** 
  82:src/../h/riscv.hpp ****     // supervisor trap
  83:src/../h/riscv.hpp ****     static void supervisorTrap();
  84:src/../h/riscv.hpp **** 
  85:src/../h/riscv.hpp **** private:
  86:src/../h/riscv.hpp **** 
  87:src/../h/riscv.hpp ****     // supervisor trap handler
  88:src/../h/riscv.hpp ****     static void handleSupervisorTrap();
  89:src/../h/riscv.hpp **** 
  90:src/../h/riscv.hpp ****     static void consoleHandler();
  91:src/../h/riscv.hpp **** 
  92:src/../h/riscv.hpp **** };
  93:src/../h/riscv.hpp **** 
  94:src/../h/riscv.hpp **** inline uint64 Riscv::r_scause()
  95:src/../h/riscv.hpp **** {
  96:src/../h/riscv.hpp ****     uint64 volatile scause;
GAS LISTING /tmp/cc1tRRG7.s 			page 9


  97:src/../h/riscv.hpp ****     __asm__ volatile ("csrr %[scause], scause" : [scause] "=r"(scause));
  98:src/../h/riscv.hpp ****     return scause;
  99:src/../h/riscv.hpp **** }
 100:src/../h/riscv.hpp **** 
 101:src/../h/riscv.hpp **** inline void Riscv::w_scause(uint64 scause)
 102:src/../h/riscv.hpp **** {
 103:src/../h/riscv.hpp ****     __asm__ volatile ("csrw scause, %[scause]" : : [scause] "r"(scause));
 104:src/../h/riscv.hpp **** }
 105:src/../h/riscv.hpp **** 
 106:src/../h/riscv.hpp **** inline uint64 Riscv::r_sepc()
 107:src/../h/riscv.hpp **** {
 108:src/../h/riscv.hpp ****     uint64 volatile sepc;
 109:src/../h/riscv.hpp ****     __asm__ volatile ("csrr %[sepc], sepc" : [sepc] "=r"(sepc));
 110:src/../h/riscv.hpp ****     return sepc;
 111:src/../h/riscv.hpp **** }
 112:src/../h/riscv.hpp **** 
 113:src/../h/riscv.hpp **** inline void Riscv::w_sepc(uint64 sepc)
 114:src/../h/riscv.hpp **** {
 115:src/../h/riscv.hpp ****     __asm__ volatile ("csrw sepc, %[sepc]" : : [sepc] "r"(sepc));
 116:src/../h/riscv.hpp **** }
 117:src/../h/riscv.hpp **** 
 118:src/../h/riscv.hpp **** inline uint64 Riscv::r_stvec()
 119:src/../h/riscv.hpp **** {
 120:src/../h/riscv.hpp ****     uint64 volatile stvec;
 121:src/../h/riscv.hpp ****     __asm__ volatile ("csrr %[stvec], stvec" : [stvec] "=r"(stvec));
 122:src/../h/riscv.hpp ****     return stvec;
 123:src/../h/riscv.hpp **** }
 124:src/../h/riscv.hpp **** 
 125:src/../h/riscv.hpp **** inline void Riscv::w_stvec(uint64 stvec)
 126:src/../h/riscv.hpp **** {
 127:src/../h/riscv.hpp ****     __asm__ volatile ("csrw stvec, %[stvec]" : : [stvec] "r"(stvec));
 234              		.loc 4 127 5 is_stmt 1
 235              		.loc 4 127 69 is_stmt 0
 236              	 #APP
 237              	# 127 "src/../h/riscv.hpp" 1
 128              	}
 238              		csrw stvec, a5
 239              	# 0 "" 2
 240              	.LVL33:
 241              	 #NO_APP
 242              	.LBE23:
 243              	.LBE22:
  51:src/main.cpp  ****     Riscv::ms_sstatus(Riscv::SSTATUS_SIE);
 244              		.loc 1 51 5 is_stmt 1
 245              	.LBB24:
 246              	.LBB25:
 129:src/../h/riscv.hpp **** 
 130:src/../h/riscv.hpp **** inline uint64 Riscv::r_stval()
 131:src/../h/riscv.hpp **** {
 132:src/../h/riscv.hpp ****     uint64 volatile stval;
 133:src/../h/riscv.hpp ****     __asm__ volatile ("csrr %[stval], stval" : [stval] "=r"(stval));
 134:src/../h/riscv.hpp ****     return stval;
 135:src/../h/riscv.hpp **** }
 136:src/../h/riscv.hpp **** 
 137:src/../h/riscv.hpp **** inline void Riscv::w_stval(uint64 stval)
 138:src/../h/riscv.hpp **** {
 139:src/../h/riscv.hpp ****     __asm__ volatile ("csrw stval, %[stval]" : : [stval] "r"(stval));
GAS LISTING /tmp/cc1tRRG7.s 			page 10


 140:src/../h/riscv.hpp **** }
 141:src/../h/riscv.hpp **** 
 142:src/../h/riscv.hpp **** inline void Riscv::ms_sip(uint64 mask)
 143:src/../h/riscv.hpp **** {
 144:src/../h/riscv.hpp ****     __asm__ volatile ("csrs sip, %[mask]" : : [mask] "r"(mask));
 145:src/../h/riscv.hpp **** }
 146:src/../h/riscv.hpp **** 
 147:src/../h/riscv.hpp **** inline void Riscv::mc_sip(uint64 mask)
 148:src/../h/riscv.hpp **** {
 149:src/../h/riscv.hpp ****     __asm__ volatile ("csrc sip, %[mask]" : : [mask] "r"(mask));
 150:src/../h/riscv.hpp **** }
 151:src/../h/riscv.hpp **** 
 152:src/../h/riscv.hpp **** inline uint64 Riscv::r_sip()
 153:src/../h/riscv.hpp **** {
 154:src/../h/riscv.hpp ****     uint64 volatile sip;
 155:src/../h/riscv.hpp ****     __asm__ volatile ("csrr %[sip], sip" : [sip] "=r"(sip));
 156:src/../h/riscv.hpp ****     return sip;
 157:src/../h/riscv.hpp **** }
 158:src/../h/riscv.hpp **** 
 159:src/../h/riscv.hpp **** inline void Riscv::w_sip(uint64 sip)
 160:src/../h/riscv.hpp **** {
 161:src/../h/riscv.hpp ****     __asm__ volatile ("csrw sip, %[sip]" : : [sip] "r"(sip));
 162:src/../h/riscv.hpp **** }
 163:src/../h/riscv.hpp **** 
 164:src/../h/riscv.hpp **** inline void Riscv::ms_sstatus(uint64 mask)
 165:src/../h/riscv.hpp **** {
 166:src/../h/riscv.hpp ****     __asm__ volatile ("csrs sstatus, %[mask]" : : [mask] "r"(mask));
 247              		.loc 4 166 5
 248              		.loc 4 166 68 is_stmt 0
 249 01e8 93072000 		li	a5,2
 250              	 #APP
 251              	# 166 "src/../h/riscv.hpp" 1
 167              	}
 252              		csrs sstatus, a5
 253              	# 0 "" 2
 254              	.LVL34:
 255              	 #NO_APP
 256              	.LBE25:
 257              	.LBE24:
  52:src/main.cpp  **** 
  53:src/main.cpp  ****     // Thread randomThread(randomWrapper, nullptr);
  54:src/main.cpp  ****     // randomThread.start();
  55:src/main.cpp  **** 
  56:src/main.cpp  ****     // while (!userMain_handle->isFinished()) {
  57:src/main.cpp  ****         // TCB::yield(); // This causes a lock???
  58:src/main.cpp  ****     // }
  59:src/main.cpp  **** 
  60:src/main.cpp  ****     // debug_print("Finished\n");
  61:src/main.cpp  **** 
  62:src/main.cpp  ****     // TODO: Write exit.
  63:src/main.cpp  ****     // Emulator RISC-V procesora je moguće zaustaviti izvršavanjem odgovarajućih
  64:src/main.cpp  ****     // instrukcija. Upisom 32-bitne vrednosti 0x5555 na adresu 0x100000 emulator RISC-V
  65:src/main.cpp  ****     // procesora se zaustavlja. Na ovaj način je moguće zaustaviti proces emulatora nakon što za
  66:src/main.cpp  ****     // korisnički program.
  67:src/main.cpp  ****     // exit();
  68:src/main.cpp  ****     return 0;
 258              		.loc 1 68 5 is_stmt 1
GAS LISTING /tmp/cc1tRRG7.s 			page 11


  69:src/main.cpp  **** }
 259              		.loc 1 69 1 is_stmt 0
 260 01f0 13050000 		li	a0,0
 261 01f4 83308102 		ld	ra,40(sp)
 262              		.cfi_restore 1
 263 01f8 03340102 		ld	s0,32(sp)
 264              		.cfi_restore 8
 265              		.cfi_def_cfa 2, 48
 266 01fc 83348101 		ld	s1,24(sp)
 267              		.cfi_restore 9
 268              	.LVL35:
 269 0200 03390101 		ld	s2,16(sp)
 270              		.cfi_restore 18
 271 0204 83398100 		ld	s3,8(sp)
 272              		.cfi_restore 19
 273 0208 13010103 		addi	sp,sp,48
 274              		.cfi_def_cfa_offset 0
 275 020c 67800000 		jr	ra
 276              		.cfi_endproc
 277              	.LFE88:
 279              		.section	.rodata.str1.8,"aMS",@progbits,1
 280              		.align	3
 281              	.LC0:
 282 0000 496E6974 		.string	"Initializing console\n"
 282      69616C69 
 282      7A696E67 
 282      20636F6E 
 282      736F6C65 
 283 0016 0000     		.zero	2
 284              	.LC1:
 285 0018 43726561 		.string	"Creating buffers\n"
 285      74696E67 
 285      20627566 
 285      66657273 
 285      0A00
 286 002a 00000000 		.zero	6
 286      0000
 287              	.LC2:
 288 0030 42756666 		.string	"Buffers created\n"
 288      65727320 
 288      63726561 
 288      7465640A 
 288      00
 289 0041 00000000 		.zero	7
 289      000000
 290              	.LC3:
 291 0048 43726561 		.string	"Creating main thread\n"
 291      74696E67 
 291      206D6169 
 291      6E207468 
 291      72656164 
 292 005e 0000     		.zero	2
 293              	.LC4:
 294 0060 4D61696E 		.string	"Main thread handle: \n"
 294      20746872 
 294      65616420 
 294      68616E64 
GAS LISTING /tmp/cc1tRRG7.s 			page 12


 294      6C653A20 
 295 0076 0000     		.zero	2
 296              	.LC5:
 297 0078 0A00     		.string	"\n"
 298 007a 00000000 		.zero	6
 298      0000
 299              	.LC6:
 300 0080 53657474 		.string	"Setting running to main thread\n"
 300      696E6720 
 300      72756E6E 
 300      696E6720 
 300      746F206D 
 301              	.LC7:
 302 00a0 53657474 		.string	"Setting supervisor trap and enabling interrupts\n"
 302      696E6720 
 302      73757065 
 302      72766973 
 302      6F722074 
 303              		.text
 304              	.Letext0:
 305              		.file 5 "src/../h/../lib/hw.h"
 306              		.file 6 "src/../h/scheduler.hpp"
 307              		.file 7 "src/../h/tcb.hpp"
 308              		.file 8 "src/../h/list.hpp"
 309              		.file 9 "src/../h/semaphore.hpp"
 310              		.file 10 "src/../h/syscall_c.h"
 311              		.file 11 "src/../h/mem.hpp"
 312              		.file 12 "src/../h/print.hpp"
GAS LISTING /tmp/cc1tRRG7.s 			page 13

