GAS LISTING /tmp/ccly2Xev.s 			page 1


   1              		.file	"print.cpp"
   2              		.option nopic
   3              		.option norelax
   4              		.attribute arch, "rv64i2p0_m2p0_a2p0"
   5              		.attribute unaligned_access, 0
   6              		.attribute stack_align, 16
   7              		.text
   8              	.Ltext0:
   9              		.align	2
  10              		.globl	_Z27debug_print_internal_stringPKc
  12              	_Z27debug_print_internal_stringPKc:
  13              	.LFB19:
  14              		.file 1 "src/print.cpp"
   1:src/print.cpp **** #include "../h/print.hpp"
   2:src/print.cpp **** #include "../h/riscv.hpp"
   3:src/print.cpp **** #include "../lib/console.h"
   4:src/print.cpp **** 
   5:src/print.cpp **** 
   6:src/print.cpp **** void debug_print(uint64 integer) {
   7:src/print.cpp ****     #if DEBUG_PRINT == 1
   8:src/print.cpp ****     debug_print_internal_int(integer);
   9:src/print.cpp ****     #endif
  10:src/print.cpp **** }
  11:src/print.cpp **** 
  12:src/print.cpp **** void debug_print(char const *string) {
  13:src/print.cpp ****     #if DEBUG_PRINT == 1
  14:src/print.cpp ****     debug_print_internal_string(string);
  15:src/print.cpp ****     #endif
  16:src/print.cpp **** }
  17:src/print.cpp **** 
  18:src/print.cpp **** void assert(bool condition, char const *debug_message) {
  19:src/print.cpp ****     if (!condition) {
  20:src/print.cpp ****         debug_print("Assertion failed: ");
  21:src/print.cpp ****         debug_print(debug_message);
  22:src/print.cpp ****         debug_print("\n");
  23:src/print.cpp ****     }
  24:src/print.cpp **** }
  25:src/print.cpp **** 
  26:src/print.cpp **** void debug_print_internal_string(char const *string)
  27:src/print.cpp **** {
  15              		.loc 1 27 1
  16              		.cfi_startproc
  17              	.LVL0:
  18 0000 130101FD 		addi	sp,sp,-48
  19              		.cfi_def_cfa_offset 48
  20 0004 23341102 		sd	ra,40(sp)
  21 0008 23308102 		sd	s0,32(sp)
  22 000c 233C9100 		sd	s1,24(sp)
  23 0010 23382101 		sd	s2,16(sp)
  24              		.cfi_offset 1, -8
  25              		.cfi_offset 8, -16
  26              		.cfi_offset 9, -24
  27              		.cfi_offset 18, -32
  28 0014 13040103 		addi	s0,sp,48
  29              		.cfi_def_cfa 8, 0
  30 0018 93040500 		mv	s1,a0
  28:src/print.cpp ****     uint64 sstatus = Riscv::r_sstatus();
GAS LISTING /tmp/ccly2Xev.s 			page 2


  31              		.loc 1 28 5
  32              	.LBB14:
  33              	.LBB15:
  34              		.file 2 "src/../h/riscv.hpp"
   1:src/../h/riscv.hpp **** //
   2:src/../h/riscv.hpp **** // Created by marko on 20.4.22..
   3:src/../h/riscv.hpp **** //
   4:src/../h/riscv.hpp **** 
   5:src/../h/riscv.hpp **** #ifndef OS1_VEZBE07_RISCV_CONTEXT_SWITCH_2_INTERRUPT_RISCV_HPP
   6:src/../h/riscv.hpp **** #define OS1_VEZBE07_RISCV_CONTEXT_SWITCH_2_INTERRUPT_RISCV_HPP
   7:src/../h/riscv.hpp **** 
   8:src/../h/riscv.hpp **** #include "../lib/hw.h"
   9:src/../h/riscv.hpp **** 
  10:src/../h/riscv.hpp **** extern const size_t DEFAULT_STACK_SIZE;
  11:src/../h/riscv.hpp **** extern const time_t DEFAULT_TIME_SLICE;
  12:src/../h/riscv.hpp **** 
  13:src/../h/riscv.hpp **** class Riscv
  14:src/../h/riscv.hpp **** {
  15:src/../h/riscv.hpp **** public:
  16:src/../h/riscv.hpp **** 
  17:src/../h/riscv.hpp ****     // pop sstatus.spp and sstatus.spie bits (has to be a non inline function)
  18:src/../h/riscv.hpp ****     static void popSppSpie();
  19:src/../h/riscv.hpp **** 
  20:src/../h/riscv.hpp ****     // read register scause
  21:src/../h/riscv.hpp ****     static uint64 r_scause();
  22:src/../h/riscv.hpp **** 
  23:src/../h/riscv.hpp ****     // write register scause
  24:src/../h/riscv.hpp ****     static void w_scause(uint64 scause);
  25:src/../h/riscv.hpp **** 
  26:src/../h/riscv.hpp ****     // read register sepc
  27:src/../h/riscv.hpp ****     static uint64 r_sepc();
  28:src/../h/riscv.hpp **** 
  29:src/../h/riscv.hpp ****     // write register sepc
  30:src/../h/riscv.hpp ****     static void w_sepc(uint64 sepc);
  31:src/../h/riscv.hpp **** 
  32:src/../h/riscv.hpp ****     // read register stvec
  33:src/../h/riscv.hpp ****     static uint64 r_stvec();
  34:src/../h/riscv.hpp **** 
  35:src/../h/riscv.hpp ****     // write register stvec
  36:src/../h/riscv.hpp ****     static void w_stvec(uint64 stvec);
  37:src/../h/riscv.hpp **** 
  38:src/../h/riscv.hpp ****     // read register stval
  39:src/../h/riscv.hpp ****     static uint64 r_stval();
  40:src/../h/riscv.hpp **** 
  41:src/../h/riscv.hpp ****     // write register stval
  42:src/../h/riscv.hpp ****     static void w_stval(uint64 stval);
  43:src/../h/riscv.hpp **** 
  44:src/../h/riscv.hpp ****     enum BitMaskSip
  45:src/../h/riscv.hpp ****     {
  46:src/../h/riscv.hpp ****         SIP_SSIP = (1 << 1),
  47:src/../h/riscv.hpp ****         SIP_STIP = (1 << 5),
  48:src/../h/riscv.hpp ****         SIP_SEIP = (1 << 9),
  49:src/../h/riscv.hpp ****     };
  50:src/../h/riscv.hpp **** 
  51:src/../h/riscv.hpp ****     // mask set register sip
  52:src/../h/riscv.hpp ****     static void ms_sip(uint64 mask);
  53:src/../h/riscv.hpp **** 
GAS LISTING /tmp/ccly2Xev.s 			page 3


  54:src/../h/riscv.hpp ****     // mask clear register sip
  55:src/../h/riscv.hpp ****     static void mc_sip(uint64 mask);
  56:src/../h/riscv.hpp **** 
  57:src/../h/riscv.hpp ****     // read register sip
  58:src/../h/riscv.hpp ****     static uint64 r_sip();
  59:src/../h/riscv.hpp **** 
  60:src/../h/riscv.hpp ****     // write register sip
  61:src/../h/riscv.hpp ****     static void w_sip(uint64 sip);
  62:src/../h/riscv.hpp **** 
  63:src/../h/riscv.hpp ****     enum BitMaskSstatus
  64:src/../h/riscv.hpp ****     {
  65:src/../h/riscv.hpp ****         SSTATUS_SIE = (1 << 1),
  66:src/../h/riscv.hpp ****         SSTATUS_SPIE = (1 << 5),
  67:src/../h/riscv.hpp ****         SSTATUS_SPP = (1 << 8),
  68:src/../h/riscv.hpp ****     };
  69:src/../h/riscv.hpp **** 
  70:src/../h/riscv.hpp ****     // mask set register sstatus
  71:src/../h/riscv.hpp ****     static void ms_sstatus(uint64 mask);
  72:src/../h/riscv.hpp **** 
  73:src/../h/riscv.hpp ****     // mask clear register sstatus
  74:src/../h/riscv.hpp ****     static void mc_sstatus(uint64 mask);
  75:src/../h/riscv.hpp **** 
  76:src/../h/riscv.hpp ****     // read register sstatus
  77:src/../h/riscv.hpp ****     static uint64 r_sstatus();
  78:src/../h/riscv.hpp **** 
  79:src/../h/riscv.hpp ****     // write register sstatus
  80:src/../h/riscv.hpp ****     static void w_sstatus(uint64 sstatus);
  81:src/../h/riscv.hpp **** 
  82:src/../h/riscv.hpp ****     // supervisor trap
  83:src/../h/riscv.hpp ****     static void supervisorTrap();
  84:src/../h/riscv.hpp **** 
  85:src/../h/riscv.hpp **** private:
  86:src/../h/riscv.hpp **** 
  87:src/../h/riscv.hpp ****     // supervisor trap handler
  88:src/../h/riscv.hpp ****     static void handleSupervisorTrap();
  89:src/../h/riscv.hpp **** 
  90:src/../h/riscv.hpp ****     static void consoleHandler();
  91:src/../h/riscv.hpp **** 
  92:src/../h/riscv.hpp **** };
  93:src/../h/riscv.hpp **** 
  94:src/../h/riscv.hpp **** inline uint64 Riscv::r_scause()
  95:src/../h/riscv.hpp **** {
  96:src/../h/riscv.hpp ****     uint64 volatile scause;
  97:src/../h/riscv.hpp ****     __asm__ volatile ("csrr %[scause], scause" : [scause] "=r"(scause));
  98:src/../h/riscv.hpp ****     return scause;
  99:src/../h/riscv.hpp **** }
 100:src/../h/riscv.hpp **** 
 101:src/../h/riscv.hpp **** inline void Riscv::w_scause(uint64 scause)
 102:src/../h/riscv.hpp **** {
 103:src/../h/riscv.hpp ****     __asm__ volatile ("csrw scause, %[scause]" : : [scause] "r"(scause));
 104:src/../h/riscv.hpp **** }
 105:src/../h/riscv.hpp **** 
 106:src/../h/riscv.hpp **** inline uint64 Riscv::r_sepc()
 107:src/../h/riscv.hpp **** {
 108:src/../h/riscv.hpp ****     uint64 volatile sepc;
 109:src/../h/riscv.hpp ****     __asm__ volatile ("csrr %[sepc], sepc" : [sepc] "=r"(sepc));
 110:src/../h/riscv.hpp ****     return sepc;
GAS LISTING /tmp/ccly2Xev.s 			page 4


 111:src/../h/riscv.hpp **** }
 112:src/../h/riscv.hpp **** 
 113:src/../h/riscv.hpp **** inline void Riscv::w_sepc(uint64 sepc)
 114:src/../h/riscv.hpp **** {
 115:src/../h/riscv.hpp ****     __asm__ volatile ("csrw sepc, %[sepc]" : : [sepc] "r"(sepc));
 116:src/../h/riscv.hpp **** }
 117:src/../h/riscv.hpp **** 
 118:src/../h/riscv.hpp **** inline uint64 Riscv::r_stvec()
 119:src/../h/riscv.hpp **** {
 120:src/../h/riscv.hpp ****     uint64 volatile stvec;
 121:src/../h/riscv.hpp ****     __asm__ volatile ("csrr %[stvec], stvec" : [stvec] "=r"(stvec));
 122:src/../h/riscv.hpp ****     return stvec;
 123:src/../h/riscv.hpp **** }
 124:src/../h/riscv.hpp **** 
 125:src/../h/riscv.hpp **** inline void Riscv::w_stvec(uint64 stvec)
 126:src/../h/riscv.hpp **** {
 127:src/../h/riscv.hpp ****     __asm__ volatile ("csrw stvec, %[stvec]" : : [stvec] "r"(stvec));
 128:src/../h/riscv.hpp **** }
 129:src/../h/riscv.hpp **** 
 130:src/../h/riscv.hpp **** inline uint64 Riscv::r_stval()
 131:src/../h/riscv.hpp **** {
 132:src/../h/riscv.hpp ****     uint64 volatile stval;
 133:src/../h/riscv.hpp ****     __asm__ volatile ("csrr %[stval], stval" : [stval] "=r"(stval));
 134:src/../h/riscv.hpp ****     return stval;
 135:src/../h/riscv.hpp **** }
 136:src/../h/riscv.hpp **** 
 137:src/../h/riscv.hpp **** inline void Riscv::w_stval(uint64 stval)
 138:src/../h/riscv.hpp **** {
 139:src/../h/riscv.hpp ****     __asm__ volatile ("csrw stval, %[stval]" : : [stval] "r"(stval));
 140:src/../h/riscv.hpp **** }
 141:src/../h/riscv.hpp **** 
 142:src/../h/riscv.hpp **** inline void Riscv::ms_sip(uint64 mask)
 143:src/../h/riscv.hpp **** {
 144:src/../h/riscv.hpp ****     __asm__ volatile ("csrs sip, %[mask]" : : [mask] "r"(mask));
 145:src/../h/riscv.hpp **** }
 146:src/../h/riscv.hpp **** 
 147:src/../h/riscv.hpp **** inline void Riscv::mc_sip(uint64 mask)
 148:src/../h/riscv.hpp **** {
 149:src/../h/riscv.hpp ****     __asm__ volatile ("csrc sip, %[mask]" : : [mask] "r"(mask));
 150:src/../h/riscv.hpp **** }
 151:src/../h/riscv.hpp **** 
 152:src/../h/riscv.hpp **** inline uint64 Riscv::r_sip()
 153:src/../h/riscv.hpp **** {
 154:src/../h/riscv.hpp ****     uint64 volatile sip;
 155:src/../h/riscv.hpp ****     __asm__ volatile ("csrr %[sip], sip" : [sip] "=r"(sip));
 156:src/../h/riscv.hpp ****     return sip;
 157:src/../h/riscv.hpp **** }
 158:src/../h/riscv.hpp **** 
 159:src/../h/riscv.hpp **** inline void Riscv::w_sip(uint64 sip)
 160:src/../h/riscv.hpp **** {
 161:src/../h/riscv.hpp ****     __asm__ volatile ("csrw sip, %[sip]" : : [sip] "r"(sip));
 162:src/../h/riscv.hpp **** }
 163:src/../h/riscv.hpp **** 
 164:src/../h/riscv.hpp **** inline void Riscv::ms_sstatus(uint64 mask)
 165:src/../h/riscv.hpp **** {
 166:src/../h/riscv.hpp ****     __asm__ volatile ("csrs sstatus, %[mask]" : : [mask] "r"(mask));
 167:src/../h/riscv.hpp **** }
GAS LISTING /tmp/ccly2Xev.s 			page 5


 168:src/../h/riscv.hpp **** 
 169:src/../h/riscv.hpp **** inline void Riscv::mc_sstatus(uint64 mask)
 170:src/../h/riscv.hpp **** {
 171:src/../h/riscv.hpp ****     __asm__ volatile ("csrc sstatus, %[mask]" : : [mask] "r"(mask));
 172:src/../h/riscv.hpp **** }
 173:src/../h/riscv.hpp **** 
 174:src/../h/riscv.hpp **** inline uint64 Riscv::r_sstatus()
 175:src/../h/riscv.hpp **** {
 176:src/../h/riscv.hpp ****     uint64 volatile sstatus;
  35              		.loc 2 176 5
 177:src/../h/riscv.hpp ****     __asm__ volatile ("csrr %[sstatus], sstatus" : [sstatus] "=r"(sstatus));
  36              		.loc 2 177 5
  37              		.loc 2 177 76 is_stmt 0
  38              	 #APP
  39              	# 177 "src/../h/riscv.hpp" 1
 178              	    return sstatus;
  40              		csrr a5, sstatus
  41              	# 0 "" 2
  42              	 #NO_APP
  43 0020 233CF4FC 		sd	a5,-40(s0)
  44              		.loc 2 178 5 is_stmt 1
  45              		.loc 2 178 12 is_stmt 0
  46 0024 033984FD 		ld	s2,-40(s0)
  47              	.LVL1:
  48              	.LBE15:
  49              	.LBE14:
  29:src/print.cpp ****     Riscv::mc_sstatus(Riscv::SSTATUS_SIE);
  50              		.loc 1 29 5 is_stmt 1
  51              	.LBB16:
  52              	.LBB17:
 171:src/../h/riscv.hpp **** }
  53              		.loc 2 171 5
 171:src/../h/riscv.hpp **** }
  54              		.loc 2 171 68 is_stmt 0
  55 0028 93072000 		li	a5,2
  56              	 #APP
  57              	# 171 "src/../h/riscv.hpp" 1
  58              		csrc sstatus, a5
  59              	# 0 "" 2
  60              	.LVL2:
  61              	 #NO_APP
  62              	.L3:
  63              	.LBE17:
  64              	.LBE16:
  30:src/print.cpp ****     while (*string != '\0')
  65              		.loc 1 30 5 is_stmt 1
  66              		.loc 1 30 12 is_stmt 0
  67 0030 03C50400 		lbu	a0,0(s1)
  68              		.loc 1 30 20
  69 0034 630A0500 		beq	a0,zero,.L2
  31:src/print.cpp ****     {
  32:src/print.cpp ****         __putc(*string);
  70              		.loc 1 32 9 is_stmt 1
  71              		.loc 1 32 15 is_stmt 0
  72 0038 97000000 		call	__putc
  72      E7800000 
  73              	.LVL3:
GAS LISTING /tmp/ccly2Xev.s 			page 6


  33:src/print.cpp ****         string++;
  74              		.loc 1 33 9 is_stmt 1
  75              		.loc 1 33 15 is_stmt 0
  76 0040 93841400 		addi	s1,s1,1
  77              	.LVL4:
  30:src/print.cpp ****     while (*string != '\0')
  78              		.loc 1 30 5
  79 0044 6FF0DFFE 		j	.L3
  80              	.L2:
  34:src/print.cpp ****     }
  35:src/print.cpp ****     Riscv::ms_sstatus(sstatus & Riscv::SSTATUS_SIE ? Riscv::SSTATUS_SIE : 0);
  81              		.loc 1 35 5 is_stmt 1
  82              		.loc 1 35 52 is_stmt 0
  83 0048 1B090900 		sext.w	s2,s2
  84              	.LVL5:
  85              		.loc 1 35 22
  86 004c 13792900 		andi	s2,s2,2
  87 0050 1B090900 		sext.w	s2,s2
  88              	.LVL6:
  89              	.LBB18:
  90              	.LBB19:
 166:src/../h/riscv.hpp **** }
  91              		.loc 2 166 5 is_stmt 1
 166:src/../h/riscv.hpp **** }
  92              		.loc 2 166 68 is_stmt 0
  93              	 #APP
  94              	# 166 "src/../h/riscv.hpp" 1
  95              		csrs sstatus, s2
  96              	# 0 "" 2
  97              	.LVL7:
  98              	 #NO_APP
  99              	.LBE19:
 100              	.LBE18:
  36:src/print.cpp **** }
 101              		.loc 1 36 1
 102 0058 83308102 		ld	ra,40(sp)
 103              		.cfi_restore 1
 104 005c 03340102 		ld	s0,32(sp)
 105              		.cfi_restore 8
 106              		.cfi_def_cfa 2, 48
 107 0060 83348101 		ld	s1,24(sp)
 108              		.cfi_restore 9
 109              	.LVL8:
 110 0064 03390101 		ld	s2,16(sp)
 111              		.cfi_restore 18
 112 0068 13010103 		addi	sp,sp,48
 113              		.cfi_def_cfa_offset 0
 114 006c 67800000 		jr	ra
 115              		.cfi_endproc
 116              	.LFE19:
 118              		.align	2
 119              		.globl	_Z11debug_printPKc
 121              	_Z11debug_printPKc:
 122              	.LFB17:
  12:src/print.cpp ****     #if DEBUG_PRINT == 1
 123              		.loc 1 12 38 is_stmt 1
 124              		.cfi_startproc
GAS LISTING /tmp/ccly2Xev.s 			page 7


 125              	.LVL9:
 126 0070 130101FF 		addi	sp,sp,-16
 127              		.cfi_def_cfa_offset 16
 128 0074 23341100 		sd	ra,8(sp)
 129 0078 23308100 		sd	s0,0(sp)
 130              		.cfi_offset 1, -8
 131              		.cfi_offset 8, -16
 132 007c 13040101 		addi	s0,sp,16
 133              		.cfi_def_cfa 8, 0
  14:src/print.cpp ****     #endif
 134              		.loc 1 14 5
  14:src/print.cpp ****     #endif
 135              		.loc 1 14 32 is_stmt 0
 136 0080 97000000 		call	_Z27debug_print_internal_stringPKc
 136      E7800000 
 137              	.LVL10:
  16:src/print.cpp **** 
 138              		.loc 1 16 1
 139 0088 83308100 		ld	ra,8(sp)
 140              		.cfi_restore 1
 141 008c 03340100 		ld	s0,0(sp)
 142              		.cfi_restore 8
 143              		.cfi_def_cfa 2, 16
 144 0090 13010101 		addi	sp,sp,16
 145              		.cfi_def_cfa_offset 0
 146 0094 67800000 		jr	ra
 147              		.cfi_endproc
 148              	.LFE17:
 150              		.align	2
 151              		.globl	_Z6assertbPKc
 153              	_Z6assertbPKc:
 154              	.LFB18:
  18:src/print.cpp ****     if (!condition) {
 155              		.loc 1 18 56 is_stmt 1
 156              		.cfi_startproc
 157              	.LVL11:
  19:src/print.cpp ****         debug_print("Assertion failed: ");
 158              		.loc 1 19 5
 159 0098 63040500 		beq	a0,zero,.L13
 160 009c 67800000 		ret
 161              	.L13:
  18:src/print.cpp ****     if (!condition) {
 162              		.loc 1 18 56 is_stmt 0
 163 00a0 130101FE 		addi	sp,sp,-32
 164              		.cfi_def_cfa_offset 32
 165 00a4 233C1100 		sd	ra,24(sp)
 166 00a8 23388100 		sd	s0,16(sp)
 167 00ac 23349100 		sd	s1,8(sp)
 168              		.cfi_offset 1, -8
 169              		.cfi_offset 8, -16
 170              		.cfi_offset 9, -24
 171 00b0 13040102 		addi	s0,sp,32
 172              		.cfi_def_cfa 8, 0
 173 00b4 93840500 		mv	s1,a1
  20:src/print.cpp ****         debug_print(debug_message);
 174              		.loc 1 20 9 is_stmt 1
  20:src/print.cpp ****         debug_print(debug_message);
GAS LISTING /tmp/ccly2Xev.s 			page 8


 175              		.loc 1 20 20 is_stmt 0
 176 00b8 17050000 		lla	a0,.LC0
 176      13050500 
 177              	.LVL12:
 178 00c0 97000000 		call	_Z11debug_printPKc
 178      E7800000 
 179              	.LVL13:
  21:src/print.cpp ****         debug_print("\n");
 180              		.loc 1 21 9 is_stmt 1
  21:src/print.cpp ****         debug_print("\n");
 181              		.loc 1 21 20 is_stmt 0
 182 00c8 13850400 		mv	a0,s1
 183 00cc 97000000 		call	_Z11debug_printPKc
 183      E7800000 
 184              	.LVL14:
  22:src/print.cpp ****     }
 185              		.loc 1 22 9 is_stmt 1
  22:src/print.cpp ****     }
 186              		.loc 1 22 20 is_stmt 0
 187 00d4 17050000 		lla	a0,.LC1
 187      13050500 
 188 00dc 97000000 		call	_Z11debug_printPKc
 188      E7800000 
 189              	.LVL15:
  24:src/print.cpp **** 
 190              		.loc 1 24 1
 191 00e4 83308101 		ld	ra,24(sp)
 192              		.cfi_restore 1
 193 00e8 03340101 		ld	s0,16(sp)
 194              		.cfi_restore 8
 195              		.cfi_def_cfa 2, 32
 196 00ec 83348100 		ld	s1,8(sp)
 197              		.cfi_restore 9
 198              	.LVL16:
 199 00f0 13010102 		addi	sp,sp,32
 200              		.cfi_def_cfa_offset 0
 201 00f4 67800000 		jr	ra
 202              		.cfi_endproc
 203              	.LFE18:
 205              		.align	2
 206              		.globl	_Z24debug_print_internal_intm
 208              	_Z24debug_print_internal_intm:
 209              	.LFB20:
  37:src/print.cpp **** 
  38:src/print.cpp **** void debug_print_internal_int(uint64 integer)
  39:src/print.cpp **** {
 210              		.loc 1 39 1 is_stmt 1
 211              		.cfi_startproc
 212              	.LVL17:
 213 00f8 130101FC 		addi	sp,sp,-64
 214              		.cfi_def_cfa_offset 64
 215 00fc 233C1102 		sd	ra,56(sp)
 216 0100 23388102 		sd	s0,48(sp)
 217 0104 23349102 		sd	s1,40(sp)
 218 0108 23302103 		sd	s2,32(sp)
 219              		.cfi_offset 1, -8
 220              		.cfi_offset 8, -16
GAS LISTING /tmp/ccly2Xev.s 			page 9


 221              		.cfi_offset 9, -24
 222              		.cfi_offset 18, -32
 223 010c 13040104 		addi	s0,sp,64
 224              		.cfi_def_cfa 8, 0
  40:src/print.cpp ****     uint64 sstatus = Riscv::r_sstatus();
 225              		.loc 1 40 5
 226              	.LBB20:
 227              	.LBB21:
 176:src/../h/riscv.hpp ****     __asm__ volatile ("csrr %[sstatus], sstatus" : [sstatus] "=r"(sstatus));
 228              		.loc 2 176 5
 177:src/../h/riscv.hpp ****     return sstatus;
 229              		.loc 2 177 5
 177:src/../h/riscv.hpp ****     return sstatus;
 230              		.loc 2 177 76 is_stmt 0
 231              	 #APP
 232              	# 177 "src/../h/riscv.hpp" 1
 233              		csrr a5, sstatus
 234              	# 0 "" 2
 235              	 #NO_APP
 236 0114 2334F4FC 		sd	a5,-56(s0)
 237              		.loc 2 178 5 is_stmt 1
 238              		.loc 2 178 12 is_stmt 0
 239 0118 033984FC 		ld	s2,-56(s0)
 240              	.LVL18:
 241              	.LBE21:
 242              	.LBE20:
  41:src/print.cpp ****     Riscv::mc_sstatus(Riscv::SSTATUS_SIE);
 243              		.loc 1 41 5 is_stmt 1
 244              	.LBB22:
 245              	.LBB23:
 171:src/../h/riscv.hpp **** }
 246              		.loc 2 171 5
 171:src/../h/riscv.hpp **** }
 247              		.loc 2 171 68 is_stmt 0
 248 011c 93072000 		li	a5,2
 249              	 #APP
 250              	# 171 "src/../h/riscv.hpp" 1
 251              		csrc sstatus, a5
 252              	# 0 "" 2
 253              	.LVL19:
 254              	 #NO_APP
 255              	.LBE23:
 256              	.LBE22:
  42:src/print.cpp ****     static char digits[] = "0123456789";
 257              		.loc 1 42 5 is_stmt 1
  43:src/print.cpp ****     char buf[16];
 258              		.loc 1 43 5
  44:src/print.cpp ****     int i, neg;
 259              		.loc 1 44 5
  45:src/print.cpp ****     uint x;
 260              		.loc 1 45 5
  46:src/print.cpp **** 
  47:src/print.cpp ****     neg = 0;
 261              		.loc 1 47 5
  48:src/print.cpp ****     if (integer < 0)
 262              		.loc 1 48 5
  49:src/print.cpp ****     {
GAS LISTING /tmp/ccly2Xev.s 			page 10


  50:src/print.cpp ****         neg = 1;
  51:src/print.cpp ****         x = -integer;
  52:src/print.cpp ****     } else
  53:src/print.cpp ****     {
  54:src/print.cpp ****         x = integer;
 263              		.loc 1 54 9
 264              		.loc 1 54 11 is_stmt 0
 265 0124 1B050500 		sext.w	a0,a0
 266              	.LVL20:
  55:src/print.cpp ****     }
  56:src/print.cpp **** 
  57:src/print.cpp ****     i = 0;
 267              		.loc 1 57 5 is_stmt 1
 268              		.loc 1 57 7 is_stmt 0
 269 0128 13070000 		li	a4,0
 270 012c 6F008000 		j	.L15
 271              	.LVL21:
 272              	.L18:
  58:src/print.cpp ****     do
  59:src/print.cpp ****     {
  60:src/print.cpp ****         buf[i++] = digits[x % 10];
  61:src/print.cpp ****     } while ((x /= 10) != 0);
 273              		.loc 1 61 17
 274 0130 13850600 		mv	a0,a3
 275              	.LVL22:
 276              	.L15:
  58:src/print.cpp ****     do
 277              		.loc 1 58 5 is_stmt 1
  60:src/print.cpp ****     } while ((x /= 10) != 0);
 278              		.loc 1 60 9
  60:src/print.cpp ****     } while ((x /= 10) != 0);
 279              		.loc 1 60 29 is_stmt 0
 280 0134 9307A000 		li	a5,10
 281 0138 3B76F502 		remuw	a2,a0,a5
  60:src/print.cpp ****     } while ((x /= 10) != 0);
 282              		.loc 1 60 14
 283 013c 9B041700 		addiw	s1,a4,1
 284              	.LVL23:
  60:src/print.cpp ****     } while ((x /= 10) != 0);
 285              		.loc 1 60 33
 286 0140 97060000 		lla	a3,.LANCHOR0
 286      93860600 
 287 0148 B386C600 		add	a3,a3,a2
 288 014c 83C60600 		lbu	a3,0(a3)
  60:src/print.cpp ****     } while ((x /= 10) != 0);
 289              		.loc 1 60 18
 290 0150 130604FE 		addi	a2,s0,-32
 291 0154 3307E600 		add	a4,a2,a4
 292              	.LVL24:
 293 0158 2308D7FE 		sb	a3,-16(a4)
 294              		.loc 1 61 17
 295 015c BB57F502 		divuw	a5,a0,a5
 296 0160 9B860700 		sext.w	a3,a5
 297              	.LVL25:
  60:src/print.cpp ****     } while ((x /= 10) != 0);
 298              		.loc 1 60 14
 299 0164 13870400 		mv	a4,s1
GAS LISTING /tmp/ccly2Xev.s 			page 11


 300              		.loc 1 61 24
 301 0168 93079000 		li	a5,9
 302              	.LVL26:
 303 016c E3E2A7FC 		bgtu	a0,a5,.L18
 304              	.LVL27:
 305              	.L17:
  62:src/print.cpp ****     if (neg)
  63:src/print.cpp ****         buf[i++] = '-';
  64:src/print.cpp **** 
  65:src/print.cpp ****     while (--i >= 0) { __putc(buf[i]); }
 306              		.loc 1 65 5 is_stmt 1
 307              		.loc 1 65 16 is_stmt 0
 308 0170 9B84F4FF 		addiw	s1,s1,-1
 309              	.LVL28:
 310 0174 63CE0400 		blt	s1,zero,.L16
 311              		.loc 1 65 24 is_stmt 1 discriminator 1
 312              		.loc 1 65 30 is_stmt 0 discriminator 1
 313 0178 930704FE 		addi	a5,s0,-32
 314 017c B3879700 		add	a5,a5,s1
 315 0180 03C507FF 		lbu	a0,-16(a5)
 316 0184 97000000 		call	__putc
 316      E7800000 
 317              	.LVL29:
 318 018c 6FF05FFE 		j	.L17
 319              	.L16:
  66:src/print.cpp ****     Riscv::ms_sstatus(sstatus & Riscv::SSTATUS_SIE ? Riscv::SSTATUS_SIE : 0);
 320              		.loc 1 66 5 is_stmt 1
 321              		.loc 1 66 52 is_stmt 0
 322 0190 1B090900 		sext.w	s2,s2
 323              	.LVL30:
 324              		.loc 1 66 22
 325 0194 13792900 		andi	s2,s2,2
 326 0198 1B090900 		sext.w	s2,s2
 327              	.LVL31:
 328              	.LBB24:
 329              	.LBB25:
 166:src/../h/riscv.hpp **** }
 330              		.loc 2 166 5 is_stmt 1
 166:src/../h/riscv.hpp **** }
 331              		.loc 2 166 68 is_stmt 0
 332              	 #APP
 333              	# 166 "src/../h/riscv.hpp" 1
 334              		csrs sstatus, s2
 335              	# 0 "" 2
 336              	.LVL32:
 337              	 #NO_APP
 338              	.LBE25:
 339              	.LBE24:
  67:src/print.cpp **** }...
 340              		.loc 1 67 1
 341 01a0 83308103 		ld	ra,56(sp)
 342              		.cfi_restore 1
 343 01a4 03340103 		ld	s0,48(sp)
 344              		.cfi_restore 8
 345              		.cfi_def_cfa 2, 64
 346 01a8 83348102 		ld	s1,40(sp)
 347              		.cfi_restore 9
GAS LISTING /tmp/ccly2Xev.s 			page 12


 348 01ac 03390102 		ld	s2,32(sp)
 349              		.cfi_restore 18
 350 01b0 13010104 		addi	sp,sp,64
 351              		.cfi_def_cfa_offset 0
 352 01b4 67800000 		jr	ra
 353              		.cfi_endproc
 354              	.LFE20:
 356              		.align	2
 357              		.globl	_Z11debug_printm
 359              	_Z11debug_printm:
 360              	.LFB16:
   6:src/print.cpp **** void debug_print(uint64 integer) {
 361              		.loc 1 6 34 is_stmt 1
 362              		.cfi_startproc
 363              	.LVL33:
 364 01b8 130101FF 		addi	sp,sp,-16
 365              		.cfi_def_cfa_offset 16
 366 01bc 23341100 		sd	ra,8(sp)
 367 01c0 23308100 		sd	s0,0(sp)
 368              		.cfi_offset 1, -8
 369              		.cfi_offset 8, -16
 370 01c4 13040101 		addi	s0,sp,16
 371              		.cfi_def_cfa 8, 0
   8:src/print.cpp ****     debug_print_internal_int(integer);
 372              		.loc 1 8 5
   8:src/print.cpp ****     debug_print_internal_int(integer);
 373              		.loc 1 8 29 is_stmt 0
 374 01c8 97000000 		call	_Z24debug_print_internal_intm
 374      E7800000 
 375              	.LVL34:
  10:src/print.cpp **** }
 376              		.loc 1 10 1
 377 01d0 83308100 		ld	ra,8(sp)
 378              		.cfi_restore 1
 379 01d4 03340100 		ld	s0,0(sp)
 380              		.cfi_restore 8
 381              		.cfi_def_cfa 2, 16
 382 01d8 13010101 		addi	sp,sp,16
 383              		.cfi_def_cfa_offset 0
 384 01dc 67800000 		jr	ra
 385              		.cfi_endproc
 386              	.LFE16:
 388              		.section	.rodata
 389              		.align	3
 390              		.set	.LANCHOR0,. + 0
 393              	_ZZ24debug_print_internal_intmE6digits:
 394 0000 30313233 		.string	"0123456789"
 394      34353637 
 394      383900
 395              		.section	.rodata.str1.8,"aMS",@progbits,1
 396              		.align	3
 397              	.LC0:
 398 0000 41737365 		.string	"Assertion failed: "
 398      7274696F 
 398      6E206661 
 398      696C6564 
 398      3A2000
GAS LISTING /tmp/ccly2Xev.s 			page 13


 399 0013 00000000 		.zero	5
 399      00
 400              	.LC1:
 401 0018 0A00     		.string	"\n"
 402              		.text
 403              	.Letext0:
 404              		.file 3 "src/../h/../lib/hw.h"
 405              		.file 4 "src/../lib/console.h"
GAS LISTING /tmp/ccly2Xev.s 			page 14


DEFINED SYMBOLS
                            *ABS*:0000000000000000 print.cpp
     /tmp/ccly2Xev.s:12     .text:0000000000000000 _Z27debug_print_internal_stringPKc
     /tmp/ccly2Xev.s:16     .text:0000000000000000 .L0 
     /tmp/ccly2Xev.s:18     .text:0000000000000000 .L0 
     /tmp/ccly2Xev.s:19     .text:0000000000000004 .L0 
     /tmp/ccly2Xev.s:24     .text:0000000000000014 .L0 
     /tmp/ccly2Xev.s:25     .text:0000000000000014 .L0 
     /tmp/ccly2Xev.s:26     .text:0000000000000014 .L0 
     /tmp/ccly2Xev.s:27     .text:0000000000000014 .L0 
     /tmp/ccly2Xev.s:29     .text:0000000000000018 .L0 
     /tmp/ccly2Xev.s:35     .text:000000000000001c .L0 
     /tmp/ccly2Xev.s:36     .text:000000000000001c .L0 
     /tmp/ccly2Xev.s:37     .text:000000000000001c .L0 
  src/../h/riscv.hpp:177    .text:000000000000001c .L0 
     /tmp/ccly2Xev.s:45     .text:0000000000000024 .L0 
     /tmp/ccly2Xev.s:46     .text:0000000000000024 .L0 
     /tmp/ccly2Xev.s:53     .text:0000000000000028 .L0 
     /tmp/ccly2Xev.s:54     .text:0000000000000028 .L0 
     /tmp/ccly2Xev.s:55     .text:0000000000000028 .L0 
     /tmp/ccly2Xev.s:66     .text:0000000000000030 .L0 
     /tmp/ccly2Xev.s:67     .text:0000000000000030 .L0 
     /tmp/ccly2Xev.s:69     .text:0000000000000034 .L0 
     /tmp/ccly2Xev.s:71     .text:0000000000000038 .L0 
     /tmp/ccly2Xev.s:72     .text:0000000000000038 .L0 
     /tmp/ccly2Xev.s:75     .text:0000000000000040 .L0 
     /tmp/ccly2Xev.s:76     .text:0000000000000040 .L0 
     /tmp/ccly2Xev.s:79     .text:0000000000000044 .L0 
     /tmp/ccly2Xev.s:82     .text:0000000000000048 .L0 
     /tmp/ccly2Xev.s:83     .text:0000000000000048 .L0 
     /tmp/ccly2Xev.s:86     .text:000000000000004c .L0 
     /tmp/ccly2Xev.s:92     .text:0000000000000054 .L0 
  src/../h/riscv.hpp:166    .text:0000000000000054 .L0 
     /tmp/ccly2Xev.s:102    .text:0000000000000058 .L0 
     /tmp/ccly2Xev.s:103    .text:000000000000005c .L0 
     /tmp/ccly2Xev.s:105    .text:0000000000000060 .L0 
     /tmp/ccly2Xev.s:106    .text:0000000000000060 .L0 
     /tmp/ccly2Xev.s:108    .text:0000000000000064 .L0 
     /tmp/ccly2Xev.s:111    .text:0000000000000068 .L0 
     /tmp/ccly2Xev.s:113    .text:000000000000006c .L0 
     /tmp/ccly2Xev.s:115    .text:0000000000000070 .L0 
     /tmp/ccly2Xev.s:121    .text:0000000000000070 _Z11debug_printPKc
     /tmp/ccly2Xev.s:124    .text:0000000000000070 .L0 
     /tmp/ccly2Xev.s:126    .text:0000000000000070 .L0 
     /tmp/ccly2Xev.s:127    .text:0000000000000074 .L0 
     /tmp/ccly2Xev.s:130    .text:000000000000007c .L0 
     /tmp/ccly2Xev.s:131    .text:000000000000007c .L0 
     /tmp/ccly2Xev.s:133    .text:0000000000000080 .L0 
     /tmp/ccly2Xev.s:135    .text:0000000000000080 .L0 
     /tmp/ccly2Xev.s:136    .text:0000000000000080 .L0 
     /tmp/ccly2Xev.s:139    .text:0000000000000088 .L0 
     /tmp/ccly2Xev.s:140    .text:000000000000008c .L0 
     /tmp/ccly2Xev.s:142    .text:0000000000000090 .L0 
     /tmp/ccly2Xev.s:143    .text:0000000000000090 .L0 
     /tmp/ccly2Xev.s:145    .text:0000000000000094 .L0 
     /tmp/ccly2Xev.s:147    .text:0000000000000098 .L0 
     /tmp/ccly2Xev.s:153    .text:0000000000000098 _Z6assertbPKc
GAS LISTING /tmp/ccly2Xev.s 			page 15


     /tmp/ccly2Xev.s:156    .text:0000000000000098 .L0 
     /tmp/ccly2Xev.s:158    .text:0000000000000098 .L0 
     /tmp/ccly2Xev.s:159    .text:0000000000000098 .L0 
     /tmp/ccly2Xev.s:163    .text:00000000000000a0 .L0 
     /tmp/ccly2Xev.s:164    .text:00000000000000a4 .L0 
     /tmp/ccly2Xev.s:168    .text:00000000000000b0 .L0 
     /tmp/ccly2Xev.s:169    .text:00000000000000b0 .L0 
     /tmp/ccly2Xev.s:170    .text:00000000000000b0 .L0 
     /tmp/ccly2Xev.s:172    .text:00000000000000b4 .L0 
     /tmp/ccly2Xev.s:175    .text:00000000000000b8 .L0 
     /tmp/ccly2Xev.s:176    .text:00000000000000b8 .L0 
     /tmp/ccly2Xev.s:181    .text:00000000000000c8 .L0 
     /tmp/ccly2Xev.s:182    .text:00000000000000c8 .L0 
     /tmp/ccly2Xev.s:186    .text:00000000000000d4 .L0 
     /tmp/ccly2Xev.s:187    .text:00000000000000d4 .L0 
     /tmp/ccly2Xev.s:191    .text:00000000000000e4 .L0 
     /tmp/ccly2Xev.s:192    .text:00000000000000e8 .L0 
     /tmp/ccly2Xev.s:194    .text:00000000000000ec .L0 
     /tmp/ccly2Xev.s:195    .text:00000000000000ec .L0 
     /tmp/ccly2Xev.s:197    .text:00000000000000f0 .L0 
     /tmp/ccly2Xev.s:200    .text:00000000000000f4 .L0 
     /tmp/ccly2Xev.s:202    .text:00000000000000f8 .L0 
     /tmp/ccly2Xev.s:208    .text:00000000000000f8 _Z24debug_print_internal_intm
     /tmp/ccly2Xev.s:211    .text:00000000000000f8 .L0 
     /tmp/ccly2Xev.s:213    .text:00000000000000f8 .L0 
     /tmp/ccly2Xev.s:214    .text:00000000000000fc .L0 
     /tmp/ccly2Xev.s:219    .text:000000000000010c .L0 
     /tmp/ccly2Xev.s:220    .text:000000000000010c .L0 
     /tmp/ccly2Xev.s:221    .text:000000000000010c .L0 
     /tmp/ccly2Xev.s:222    .text:000000000000010c .L0 
     /tmp/ccly2Xev.s:224    .text:0000000000000110 .L0 
     /tmp/ccly2Xev.s:228    .text:0000000000000110 .L0 
     /tmp/ccly2Xev.s:229    .text:0000000000000110 .L0 
     /tmp/ccly2Xev.s:230    .text:0000000000000110 .L0 
  src/../h/riscv.hpp:177    .text:0000000000000110 .L0 
     /tmp/ccly2Xev.s:238    .text:0000000000000118 .L0 
     /tmp/ccly2Xev.s:239    .text:0000000000000118 .L0 
     /tmp/ccly2Xev.s:246    .text:000000000000011c .L0 
     /tmp/ccly2Xev.s:247    .text:000000000000011c .L0 
     /tmp/ccly2Xev.s:248    .text:000000000000011c .L0 
     /tmp/ccly2Xev.s:258    .text:0000000000000124 .L0 
     /tmp/ccly2Xev.s:259    .text:0000000000000124 .L0 
     /tmp/ccly2Xev.s:260    .text:0000000000000124 .L0 
     /tmp/ccly2Xev.s:261    .text:0000000000000124 .L0 
     /tmp/ccly2Xev.s:262    .text:0000000000000124 .L0 
     /tmp/ccly2Xev.s:263    .text:0000000000000124 .L0 
     /tmp/ccly2Xev.s:264    .text:0000000000000124 .L0 
     /tmp/ccly2Xev.s:265    .text:0000000000000124 .L0 
     /tmp/ccly2Xev.s:268    .text:0000000000000128 .L0 
     /tmp/ccly2Xev.s:269    .text:0000000000000128 .L0 
     /tmp/ccly2Xev.s:274    .text:0000000000000130 .L0 
     /tmp/ccly2Xev.s:278    .text:0000000000000134 .L0 
     /tmp/ccly2Xev.s:279    .text:0000000000000134 .L0 
     /tmp/ccly2Xev.s:280    .text:0000000000000134 .L0 
     /tmp/ccly2Xev.s:283    .text:000000000000013c .L0 
     /tmp/ccly2Xev.s:286    .text:0000000000000140 .L0 
     /tmp/ccly2Xev.s:290    .text:0000000000000150 .L0 
GAS LISTING /tmp/ccly2Xev.s 			page 16


     /tmp/ccly2Xev.s:295    .text:000000000000015c .L0 
     /tmp/ccly2Xev.s:299    .text:0000000000000164 .L0 
     /tmp/ccly2Xev.s:301    .text:0000000000000168 .L0 
     /tmp/ccly2Xev.s:307    .text:0000000000000170 .L0 
     /tmp/ccly2Xev.s:308    .text:0000000000000170 .L0 
     /tmp/ccly2Xev.s:312    .text:0000000000000178 .L0 
     /tmp/ccly2Xev.s:313    .text:0000000000000178 .L0 
     /tmp/ccly2Xev.s:321    .text:0000000000000190 .L0 
     /tmp/ccly2Xev.s:322    .text:0000000000000190 .L0 
     /tmp/ccly2Xev.s:325    .text:0000000000000194 .L0 
     /tmp/ccly2Xev.s:331    .text:000000000000019c .L0 
  src/../h/riscv.hpp:166    .text:000000000000019c .L0 
     /tmp/ccly2Xev.s:341    .text:00000000000001a0 .L0 
     /tmp/ccly2Xev.s:342    .text:00000000000001a4 .L0 
     /tmp/ccly2Xev.s:344    .text:00000000000001a8 .L0 
     /tmp/ccly2Xev.s:345    .text:00000000000001a8 .L0 
     /tmp/ccly2Xev.s:347    .text:00000000000001ac .L0 
     /tmp/ccly2Xev.s:349    .text:00000000000001b0 .L0 
     /tmp/ccly2Xev.s:351    .text:00000000000001b4 .L0 
     /tmp/ccly2Xev.s:353    .text:00000000000001b8 .L0 
     /tmp/ccly2Xev.s:359    .text:00000000000001b8 _Z11debug_printm
     /tmp/ccly2Xev.s:362    .text:00000000000001b8 .L0 
     /tmp/ccly2Xev.s:364    .text:00000000000001b8 .L0 
     /tmp/ccly2Xev.s:365    .text:00000000000001bc .L0 
     /tmp/ccly2Xev.s:368    .text:00000000000001c4 .L0 
     /tmp/ccly2Xev.s:369    .text:00000000000001c4 .L0 
     /tmp/ccly2Xev.s:371    .text:00000000000001c8 .L0 
     /tmp/ccly2Xev.s:373    .text:00000000000001c8 .L0 
     /tmp/ccly2Xev.s:374    .text:00000000000001c8 .L0 
     /tmp/ccly2Xev.s:377    .text:00000000000001d0 .L0 
     /tmp/ccly2Xev.s:378    .text:00000000000001d4 .L0 
     /tmp/ccly2Xev.s:380    .text:00000000000001d8 .L0 
     /tmp/ccly2Xev.s:381    .text:00000000000001d8 .L0 
     /tmp/ccly2Xev.s:383    .text:00000000000001dc .L0 
     /tmp/ccly2Xev.s:385    .text:00000000000001e0 .L0 
     /tmp/ccly2Xev.s:390    .rodata:0000000000000000 .LANCHOR0
     /tmp/ccly2Xev.s:393    .rodata:0000000000000000 _ZZ24debug_print_internal_intmE6digits
     /tmp/ccly2Xev.s:406    .text:00000000000001e0 .L0 
     /tmp/ccly2Xev.s:397    .rodata.str1.8:0000000000000000 .LC0
     /tmp/ccly2Xev.s:176    .text:00000000000000b8 .L0 
     /tmp/ccly2Xev.s:400    .rodata.str1.8:0000000000000018 .LC1
     /tmp/ccly2Xev.s:187    .text:00000000000000d4 .L0 
     /tmp/ccly2Xev.s:286    .text:0000000000000140 .L0 
     /tmp/ccly2Xev.s:80     .text:0000000000000048 .L2
     /tmp/ccly2Xev.s:62     .text:0000000000000030 .L3
     /tmp/ccly2Xev.s:161    .text:00000000000000a0 .L13
     /tmp/ccly2Xev.s:276    .text:0000000000000134 .L15
     /tmp/ccly2Xev.s:272    .text:0000000000000130 .L18
     /tmp/ccly2Xev.s:319    .text:0000000000000190 .L16
     /tmp/ccly2Xev.s:305    .text:0000000000000170 .L17
     /tmp/ccly2Xev.s:1140   .debug_abbrev:0000000000000000 .Ldebug_abbrev0
     /tmp/ccly2Xev.s:2003   .debug_str:0000000000000273 .LASF79
     /tmp/ccly2Xev.s:2073   .debug_str:0000000000000556 .LASF80
     /tmp/ccly2Xev.s:1993   .debug_str:0000000000000213 .LASF81
     /tmp/ccly2Xev.s:8      .text:0000000000000000 .Ltext0
     /tmp/ccly2Xev.s:403    .text:00000000000001e0 .Letext0
     /tmp/ccly2Xev.s:1915   .debug_line:0000000000000000 .Ldebug_line0
GAS LISTING /tmp/ccly2Xev.s 			page 17


     /tmp/ccly2Xev.s:1943   .debug_str:000000000000009f .LASF3
     /tmp/ccly2Xev.s:2011   .debug_str:0000000000000369 .LASF0
     /tmp/ccly2Xev.s:2021   .debug_str:00000000000003c4 .LASF1
     /tmp/ccly2Xev.s:1997   .debug_str:000000000000023f .LASF2
     /tmp/ccly2Xev.s:1983   .debug_str:00000000000001cb .LASF4
     /tmp/ccly2Xev.s:2045   .debug_str:0000000000000471 .LASF5
     /tmp/ccly2Xev.s:1929   .debug_str:0000000000000036 .LASF6
     /tmp/ccly2Xev.s:2025   .debug_str:00000000000003e1 .LASF7
     /tmp/ccly2Xev.s:2009   .debug_str:0000000000000356 .LASF8
     /tmp/ccly2Xev.s:2063   .debug_str:0000000000000501 .LASF9
     /tmp/ccly2Xev.s:1971   .debug_str:000000000000015a .LASF10
     /tmp/ccly2Xev.s:2029   .debug_str:00000000000003f9 .LASF11
     /tmp/ccly2Xev.s:2061   .debug_str:00000000000004f2 .LASF12
     /tmp/ccly2Xev.s:1933   .debug_str:0000000000000049 .LASF13
     /tmp/ccly2Xev.s:1919   .debug_str:0000000000000008 .LASF14
     /tmp/ccly2Xev.s:1941   .debug_str:0000000000000093 .LASF15
     /tmp/ccly2Xev.s:2041   .debug_str:0000000000000443 .LASF16
     /tmp/ccly2Xev.s:1947   .debug_str:00000000000000b0 .LASF17
     /tmp/ccly2Xev.s:2019   .debug_str:00000000000003be .LASF82
     /tmp/ccly2Xev.s:1951   .debug_str:00000000000000da .LASF83
     /tmp/ccly2Xev.s:1945   .debug_str:00000000000000a4 .LASF18
     /tmp/ccly2Xev.s:1991   .debug_str:0000000000000206 .LASF19
     /tmp/ccly2Xev.s:1931   .debug_str:000000000000003d .LASF20
     /tmp/ccly2Xev.s:2037   .debug_str:0000000000000431 .LASF53
     /tmp/ccly2Xev.s:2075   .debug_str:0000000000000564 .LASF55
     /tmp/ccly2Xev.s:1921   .debug_str:0000000000000018 .LASF21
     /tmp/ccly2Xev.s:2051   .debug_str:0000000000000499 .LASF23
     /tmp/ccly2Xev.s:1955   .debug_str:00000000000000fe .LASF25
     /tmp/ccly2Xev.s:1953   .debug_str:00000000000000e9 .LASF27
     /tmp/ccly2Xev.s:2047   .debug_str:0000000000000483 .LASF22
     /tmp/ccly2Xev.s:2031   .debug_str:0000000000000408 .LASF24
     /tmp/ccly2Xev.s:2059   .debug_str:00000000000004eb .LASF26
     /tmp/ccly2Xev.s:2055   .debug_str:00000000000004c6 .LASF28
     /tmp/ccly2Xev.s:1965   .debug_str:000000000000013b .LASF29
     /tmp/ccly2Xev.s:1949   .debug_str:00000000000000c6 .LASF30
     /tmp/ccly2Xev.s:1917   .debug_str:0000000000000000 .LASF31
     /tmp/ccly2Xev.s:1975   .debug_str:000000000000017e .LASF32
     /tmp/ccly2Xev.s:1957   .debug_str:0000000000000107 .LASF33
     /tmp/ccly2Xev.s:1935   .debug_str:0000000000000059 .LASF34
     /tmp/ccly2Xev.s:2079   .debug_str:0000000000000587 .LASF35
     /tmp/ccly2Xev.s:1959   .debug_str:000000000000010f .LASF36
     /tmp/ccly2Xev.s:2013   .debug_str:0000000000000376 .LASF37
     /tmp/ccly2Xev.s:2071   .debug_str:0000000000000543 .LASF38
     /tmp/ccly2Xev.s:1927   .debug_str:000000000000002f .LASF39
     /tmp/ccly2Xev.s:1963   .debug_str:0000000000000128 .LASF40
     /tmp/ccly2Xev.s:1969   .debug_str:0000000000000154 .LASF41
     /tmp/ccly2Xev.s:2057   .debug_str:00000000000004d9 .LASF42
     /tmp/ccly2Xev.s:1923   .debug_str:0000000000000021 .LASF43
     /tmp/ccly2Xev.s:2085   .debug_str:000000000000059b .LASF44
     /tmp/ccly2Xev.s:2077   .debug_str:000000000000057c .LASF45
     /tmp/ccly2Xev.s:2043   .debug_str:0000000000000459 .LASF46
     /tmp/ccly2Xev.s:1985   .debug_str:00000000000001d2 .LASF47
     /tmp/ccly2Xev.s:2053   .debug_str:00000000000004ae .LASF48
     /tmp/ccly2Xev.s:1939   .debug_str:0000000000000089 .LASF49
     /tmp/ccly2Xev.s:1977   .debug_str:0000000000000192 .LASF50
     /tmp/ccly2Xev.s:2001   .debug_str:0000000000000269 .LASF51
     /tmp/ccly2Xev.s:1973   .debug_str:0000000000000168 .LASF52
GAS LISTING /tmp/ccly2Xev.s 			page 18


     /tmp/ccly2Xev.s:2049   .debug_str:000000000000048a .LASF54
     /tmp/ccly2Xev.s:1937   .debug_str:000000000000006d .LASF56
     /tmp/ccly2Xev.s:2067   .debug_str:000000000000051f .LASF57
     /tmp/ccly2Xev.s:1989   .debug_str:00000000000001e4 .LASF59
     /tmp/ccly2Xev.s:2069   .debug_str:0000000000000534 .LASF58
     /tmp/ccly2Xev.s:1999   .debug_str:000000000000024d .LASF60
     /tmp/ccly2Xev.s:1995   .debug_str:0000000000000226 .LASF64
     /tmp/ccly2Xev.s:2017   .debug_str:00000000000003a0 .LASF66
     /tmp/ccly2Xev.s:209    .text:00000000000000f8 .LFB20
     /tmp/ccly2Xev.s:354    .text:00000000000001b8 .LFE20
     /tmp/ccly2Xev.s:1925   .debug_str:0000000000000027 .LASF68
     /tmp/ccly2Xev.s:1736   .debug_loc:0000000000000000 .LLST6
     /tmp/ccly2Xev.s:2033   .debug_str:000000000000041b .LASF61
     /tmp/ccly2Xev.s:1750   .debug_loc:0000000000000039 .LLST7
     /tmp/ccly2Xev.s:1987   .debug_str:00000000000001dd .LASF62
     /tmp/ccly2Xev.s:1757   .debug_loc:000000000000005c .LLST8
     /tmp/ccly2Xev.s:1779   .debug_loc:00000000000000bb .LLST9
     /tmp/ccly2Xev.s:226    .text:0000000000000110 .LBB20
     /tmp/ccly2Xev.s:242    .text:000000000000011c .LBE20
     /tmp/ccly2Xev.s:227    .text:0000000000000110 .LBB21
     /tmp/ccly2Xev.s:241    .text:000000000000011c .LBE21
     /tmp/ccly2Xev.s:244    .text:000000000000011c .LBB22
     /tmp/ccly2Xev.s:256    .text:0000000000000124 .LBE22
     /tmp/ccly2Xev.s:1802   .debug_loc:000000000000012a .LLST10
     /tmp/ccly2Xev.s:328    .text:000000000000019c .LBB24
     /tmp/ccly2Xev.s:339    .text:00000000000001a0 .LBE24
     /tmp/ccly2Xev.s:1810   .debug_loc:000000000000014e .LLST11
     /tmp/ccly2Xev.s:317    .text:000000000000018c .LVL29
     /tmp/ccly2Xev.s:2027   .debug_str:00000000000003f4 .LASF63
     /tmp/ccly2Xev.s:1979   .debug_str:00000000000001a8 .LASF65
     /tmp/ccly2Xev.s:2015   .debug_str:000000000000037d .LASF67
     /tmp/ccly2Xev.s:13     .text:0000000000000000 .LFB19
     /tmp/ccly2Xev.s:116    .text:0000000000000070 .LFE19
     /tmp/ccly2Xev.s:1981   .debug_str:00000000000001c4 .LASF69
     /tmp/ccly2Xev.s:1817   .debug_loc:0000000000000171 .LLST0
     /tmp/ccly2Xev.s:1828   .debug_loc:00000000000001a7 .LLST1
     /tmp/ccly2Xev.s:32     .text:000000000000001c .LBB14
     /tmp/ccly2Xev.s:49     .text:0000000000000028 .LBE14
     /tmp/ccly2Xev.s:33     .text:000000000000001c .LBB15
     /tmp/ccly2Xev.s:48     .text:0000000000000028 .LBE15
     /tmp/ccly2Xev.s:51     .text:0000000000000028 .LBB16
     /tmp/ccly2Xev.s:64     .text:0000000000000030 .LBE16
     /tmp/ccly2Xev.s:89     .text:0000000000000054 .LBB18
     /tmp/ccly2Xev.s:100    .text:0000000000000058 .LBE18
     /tmp/ccly2Xev.s:1835   .debug_loc:00000000000001ca .LLST2
     /tmp/ccly2Xev.s:73     .text:0000000000000040 .LVL3
     /tmp/ccly2Xev.s:2081   .debug_str:000000000000058f .LASF70
     /tmp/ccly2Xev.s:2035   .debug_str:0000000000000423 .LASF71
     /tmp/ccly2Xev.s:154    .text:0000000000000098 .LFB18
     /tmp/ccly2Xev.s:203    .text:00000000000000f8 .LFE18
     /tmp/ccly2Xev.s:2023   .debug_str:00000000000003d7 .LASF72
     /tmp/ccly2Xev.s:1842   .debug_loc:00000000000001ed .LLST4
     /tmp/ccly2Xev.s:2065   .debug_str:0000000000000511 .LASF73
     /tmp/ccly2Xev.s:1856   .debug_loc:0000000000000226 .LLST5
     /tmp/ccly2Xev.s:179    .text:00000000000000c8 .LVL13
     /tmp/ccly2Xev.s:184    .text:00000000000000d4 .LVL14
     /tmp/ccly2Xev.s:189    .text:00000000000000e4 .LVL15
GAS LISTING /tmp/ccly2Xev.s 			page 19


     /tmp/ccly2Xev.s:1961   .debug_str:0000000000000123 .LASF74
     /tmp/ccly2Xev.s:2005   .debug_str:0000000000000337 .LASF75
     /tmp/ccly2Xev.s:2007   .debug_str:0000000000000343 .LASF76
     /tmp/ccly2Xev.s:122    .text:0000000000000070 .LFB17
     /tmp/ccly2Xev.s:148    .text:0000000000000098 .LFE17
     /tmp/ccly2Xev.s:1874   .debug_loc:0000000000000272 .LLST3
     /tmp/ccly2Xev.s:137    .text:0000000000000088 .LVL10
     /tmp/ccly2Xev.s:1967   .debug_str:0000000000000143 .LASF77
     /tmp/ccly2Xev.s:360    .text:00000000000001b8 .LFB16
     /tmp/ccly2Xev.s:386    .text:00000000000001e0 .LFE16
     /tmp/ccly2Xev.s:1888   .debug_loc:00000000000002ab .LLST12
     /tmp/ccly2Xev.s:375    .text:00000000000001d0 .LVL34
     /tmp/ccly2Xev.s:2083   .debug_str:0000000000000596 .LASF78
     /tmp/ccly2Xev.s:2039   .debug_str:000000000000043c .LASF84
     /tmp/ccly2Xev.s:212    .text:00000000000000f8 .LVL17
     /tmp/ccly2Xev.s:266    .text:0000000000000128 .LVL20
     /tmp/ccly2Xev.s:240    .text:000000000000011c .LVL18
     /tmp/ccly2Xev.s:323    .text:0000000000000194 .LVL30
     /tmp/ccly2Xev.s:271    .text:0000000000000130 .LVL21
     /tmp/ccly2Xev.s:275    .text:0000000000000134 .LVL22
     /tmp/ccly2Xev.s:284    .text:0000000000000140 .LVL23
     /tmp/ccly2Xev.s:292    .text:0000000000000158 .LVL24
     /tmp/ccly2Xev.s:304    .text:0000000000000170 .LVL27
     /tmp/ccly2Xev.s:309    .text:0000000000000174 .LVL28
     /tmp/ccly2Xev.s:297    .text:0000000000000164 .LVL25
     /tmp/ccly2Xev.s:302    .text:000000000000016c .LVL26
     /tmp/ccly2Xev.s:253    .text:0000000000000124 .LVL19
     /tmp/ccly2Xev.s:327    .text:000000000000019c .LVL31
     /tmp/ccly2Xev.s:336    .text:00000000000001a0 .LVL32
     /tmp/ccly2Xev.s:17     .text:0000000000000000 .LVL0
     /tmp/ccly2Xev.s:60     .text:0000000000000030 .LVL2
     /tmp/ccly2Xev.s:109    .text:0000000000000064 .LVL8
     /tmp/ccly2Xev.s:47     .text:0000000000000028 .LVL1
     /tmp/ccly2Xev.s:84     .text:000000000000004c .LVL5
     /tmp/ccly2Xev.s:88     .text:0000000000000054 .LVL6
     /tmp/ccly2Xev.s:97     .text:0000000000000058 .LVL7
     /tmp/ccly2Xev.s:157    .text:0000000000000098 .LVL11
     /tmp/ccly2Xev.s:177    .text:00000000000000c0 .LVL12
     /tmp/ccly2Xev.s:198    .text:00000000000000f0 .LVL16
     /tmp/ccly2Xev.s:125    .text:0000000000000070 .LVL9
     /tmp/ccly2Xev.s:363    .text:00000000000001b8 .LVL33
     /tmp/ccly2Xev.s:407    .debug_info:0000000000000000 .Ldebug_info0

UNDEFINED SYMBOLS
__putc
