GAS LISTING /tmp/cc5ud44b.s 			page 1


   1              		.file	"print.cpp"
   2              		.option nopic
   3              		.option norelax
   4              		.attribute arch, "rv64i2p0_m2p0_a2p0"
   5              		.attribute unaligned_access, 0
   6              		.attribute stack_align, 16
   7              		.text
   8              	.Ltext0:
   9              		.align	2
  10              		.globl	_Z11debug_printm
  12              	_Z11debug_printm:
  13              	.LFB36:
  14              		.file 1 "src/print.cpp"
   1:src/print.cpp **** #include "../h/print.hpp"
   2:src/print.cpp **** #include "../h/riscv.hpp"
   3:src/print.cpp **** #include "../lib/console.h"
   4:src/print.cpp **** 
   5:src/print.cpp **** // void printString(char const *string)
   6:src/print.cpp **** // {
   7:src/print.cpp **** //     uint64 sstatus = Riscv::r_sstatus();
   8:src/print.cpp **** //     Riscv::mc_sstatus(Riscv::SSTATUS_SIE);
   9:src/print.cpp **** //     while (*string != '\0')
  10:src/print.cpp **** //     {
  11:src/print.cpp **** //         __putc(*string);
  12:src/print.cpp **** //         string++;
  13:src/print.cpp **** //     }
  14:src/print.cpp **** //     Riscv::ms_sstatus(sstatus & Riscv::SSTATUS_SIE ? Riscv::SSTATUS_SIE : 0);
  15:src/print.cpp **** // }
  16:src/print.cpp **** 
  17:src/print.cpp **** void debug_print(uint64 integer) {
  15              		.loc 1 17 34
  16              		.cfi_startproc
  17              	.LVL0:
  18 0000 130101FF 		addi	sp,sp,-16
  19              		.cfi_def_cfa_offset 16
  20 0004 23341100 		sd	ra,8(sp)
  21 0008 23308100 		sd	s0,0(sp)
  22              		.cfi_offset 1, -8
  23              		.cfi_offset 8, -16
  24 000c 13040101 		addi	s0,sp,16
  25              		.cfi_def_cfa 8, 0
  18:src/print.cpp ****     #if DEBUG_PRINT == 1
  19:src/print.cpp ****     printInt(integer);
  26              		.loc 1 19 5
  27              		.loc 1 19 13 is_stmt 0
  28 0010 13060000 		li	a2,0
  29 0014 9305A000 		li	a1,10
  30 0018 1B050500 		sext.w	a0,a0
  31              	.LVL1:
  32 001c 97000000 		call	_Z8printIntiii
  32      E7800000 
  33              	.LVL2:
  20:src/print.cpp ****     #endif
  21:src/print.cpp **** }
  34              		.loc 1 21 1
  35 0024 83308100 		ld	ra,8(sp)
  36              		.cfi_restore 1
GAS LISTING /tmp/cc5ud44b.s 			page 2


  37 0028 03340100 		ld	s0,0(sp)
  38              		.cfi_restore 8
  39              		.cfi_def_cfa 2, 16
  40 002c 13010101 		addi	sp,sp,16
  41              		.cfi_def_cfa_offset 0
  42 0030 67800000 		jr	ra
  43              		.cfi_endproc
  44              	.LFE36:
  46              		.align	2
  47              		.globl	_Z11debug_printPKc
  49              	_Z11debug_printPKc:
  50              	.LFB37:
  22:src/print.cpp **** 
  23:src/print.cpp **** void debug_print(char const *string) {
  51              		.loc 1 23 38 is_stmt 1
  52              		.cfi_startproc
  53              	.LVL3:
  54 0034 130101FF 		addi	sp,sp,-16
  55              		.cfi_def_cfa_offset 16
  56 0038 23341100 		sd	ra,8(sp)
  57 003c 23308100 		sd	s0,0(sp)
  58              		.cfi_offset 1, -8
  59              		.cfi_offset 8, -16
  60 0040 13040101 		addi	s0,sp,16
  61              		.cfi_def_cfa 8, 0
  24:src/print.cpp ****     #if DEBUG_PRINT == 1
  25:src/print.cpp ****     printString(string);
  62              		.loc 1 25 5
  63              		.loc 1 25 16 is_stmt 0
  64 0044 97000000 		call	_Z11printStringPKc
  64      E7800000 
  65              	.LVL4:
  26:src/print.cpp ****     #endif
  27:src/print.cpp **** }
  66              		.loc 1 27 1
  67 004c 83308100 		ld	ra,8(sp)
  68              		.cfi_restore 1
  69 0050 03340100 		ld	s0,0(sp)
  70              		.cfi_restore 8
  71              		.cfi_def_cfa 2, 16
  72 0054 13010101 		addi	sp,sp,16
  73              		.cfi_def_cfa_offset 0
  74 0058 67800000 		jr	ra
  75              		.cfi_endproc
  76              	.LFE37:
  78              		.align	2
  79              		.globl	_Z6assertbPKc
  81              	_Z6assertbPKc:
  82              	.LFB38:
  28:src/print.cpp **** 
  29:src/print.cpp **** void assert(bool condition, char const *debug_message) {
  83              		.loc 1 29 56 is_stmt 1
  84              		.cfi_startproc
  85              	.LVL5:
  30:src/print.cpp ****     if (!condition) {
  86              		.loc 1 30 5
  87 005c 63040500 		beq	a0,zero,.L11
GAS LISTING /tmp/cc5ud44b.s 			page 3


  88 0060 67800000 		ret
  89              	.L11:
  29:src/print.cpp ****     if (!condition) {
  90              		.loc 1 29 56 is_stmt 0
  91 0064 130101FE 		addi	sp,sp,-32
  92              		.cfi_def_cfa_offset 32
  93 0068 233C1100 		sd	ra,24(sp)
  94 006c 23388100 		sd	s0,16(sp)
  95 0070 23349100 		sd	s1,8(sp)
  96              		.cfi_offset 1, -8
  97              		.cfi_offset 8, -16
  98              		.cfi_offset 9, -24
  99 0074 13040102 		addi	s0,sp,32
 100              		.cfi_def_cfa 8, 0
 101 0078 93840500 		mv	s1,a1
  31:src/print.cpp ****         debug_print("Assertion failed: ");
 102              		.loc 1 31 9 is_stmt 1
 103              		.loc 1 31 20 is_stmt 0
 104 007c 17050000 		lla	a0,.LC0
 104      13050500 
 105              	.LVL6:
 106 0084 97000000 		call	_Z11debug_printPKc
 106      E7800000 
 107              	.LVL7:
  32:src/print.cpp ****         debug_print(debug_message);
 108              		.loc 1 32 9 is_stmt 1
 109              		.loc 1 32 20 is_stmt 0
 110 008c 13850400 		mv	a0,s1
 111 0090 97000000 		call	_Z11debug_printPKc
 111      E7800000 
 112              	.LVL8:
  33:src/print.cpp ****         debug_print("\n");
 113              		.loc 1 33 9 is_stmt 1
 114              		.loc 1 33 20 is_stmt 0
 115 0098 17050000 		lla	a0,.LC1
 115      13050500 
 116 00a0 97000000 		call	_Z11debug_printPKc
 116      E7800000 
 117              	.LVL9:
  34:src/print.cpp ****     }
  35:src/print.cpp **** }
 118              		.loc 1 35 1
 119 00a8 83308101 		ld	ra,24(sp)
 120              		.cfi_restore 1
 121 00ac 03340101 		ld	s0,16(sp)
 122              		.cfi_restore 8
 123              		.cfi_def_cfa 2, 32
 124 00b0 83348100 		ld	s1,8(sp)
 125              		.cfi_restore 9
 126              	.LVL10:
 127 00b4 13010102 		addi	sp,sp,32
 128              		.cfi_def_cfa_offset 0
 129 00b8 67800000 		jr	ra
 130              		.cfi_endproc
 131              	.LFE38:
 133              		.section	.rodata.str1.8,"aMS",@progbits,1
 134              		.align	3
GAS LISTING /tmp/cc5ud44b.s 			page 4


 135              	.LC0:
 136 0000 41737365 		.string	"Assertion failed: "
 136      7274696F 
 136      6E206661 
 136      696C6564 
 136      3A2000
 137 0013 00000000 		.zero	5
 137      00
 138              	.LC1:
 139 0018 0A00     		.string	"\n"
 140              		.text
 141              	.Letext0:
 142              		.file 2 "src/../h/../lib/hw.h"
 143              		.file 3 "src/../h/../test/printing.hpp"
 144              		.file 4 "src/../h/../test/../h/syscall_c.h"
GAS LISTING /tmp/cc5ud44b.s 			page 5


DEFINED SYMBOLS
                            *ABS*:0000000000000000 print.cpp
     /tmp/cc5ud44b.s:12     .text:0000000000000000 _Z11debug_printm
     /tmp/cc5ud44b.s:16     .text:0000000000000000 .L0 
     /tmp/cc5ud44b.s:18     .text:0000000000000000 .L0 
     /tmp/cc5ud44b.s:19     .text:0000000000000004 .L0 
     /tmp/cc5ud44b.s:22     .text:000000000000000c .L0 
     /tmp/cc5ud44b.s:23     .text:000000000000000c .L0 
     /tmp/cc5ud44b.s:25     .text:0000000000000010 .L0 
     /tmp/cc5ud44b.s:27     .text:0000000000000010 .L0 
     /tmp/cc5ud44b.s:28     .text:0000000000000010 .L0 
     /tmp/cc5ud44b.s:35     .text:0000000000000024 .L0 
     /tmp/cc5ud44b.s:36     .text:0000000000000028 .L0 
     /tmp/cc5ud44b.s:38     .text:000000000000002c .L0 
     /tmp/cc5ud44b.s:39     .text:000000000000002c .L0 
     /tmp/cc5ud44b.s:41     .text:0000000000000030 .L0 
     /tmp/cc5ud44b.s:43     .text:0000000000000034 .L0 
     /tmp/cc5ud44b.s:49     .text:0000000000000034 _Z11debug_printPKc
     /tmp/cc5ud44b.s:52     .text:0000000000000034 .L0 
     /tmp/cc5ud44b.s:54     .text:0000000000000034 .L0 
     /tmp/cc5ud44b.s:55     .text:0000000000000038 .L0 
     /tmp/cc5ud44b.s:58     .text:0000000000000040 .L0 
     /tmp/cc5ud44b.s:59     .text:0000000000000040 .L0 
     /tmp/cc5ud44b.s:61     .text:0000000000000044 .L0 
     /tmp/cc5ud44b.s:63     .text:0000000000000044 .L0 
     /tmp/cc5ud44b.s:64     .text:0000000000000044 .L0 
     /tmp/cc5ud44b.s:67     .text:000000000000004c .L0 
     /tmp/cc5ud44b.s:68     .text:0000000000000050 .L0 
     /tmp/cc5ud44b.s:70     .text:0000000000000054 .L0 
     /tmp/cc5ud44b.s:71     .text:0000000000000054 .L0 
     /tmp/cc5ud44b.s:73     .text:0000000000000058 .L0 
     /tmp/cc5ud44b.s:75     .text:000000000000005c .L0 
     /tmp/cc5ud44b.s:81     .text:000000000000005c _Z6assertbPKc
     /tmp/cc5ud44b.s:84     .text:000000000000005c .L0 
     /tmp/cc5ud44b.s:86     .text:000000000000005c .L0 
     /tmp/cc5ud44b.s:87     .text:000000000000005c .L0 
     /tmp/cc5ud44b.s:91     .text:0000000000000064 .L0 
     /tmp/cc5ud44b.s:92     .text:0000000000000068 .L0 
     /tmp/cc5ud44b.s:96     .text:0000000000000074 .L0 
     /tmp/cc5ud44b.s:97     .text:0000000000000074 .L0 
     /tmp/cc5ud44b.s:98     .text:0000000000000074 .L0 
     /tmp/cc5ud44b.s:100    .text:0000000000000078 .L0 
     /tmp/cc5ud44b.s:103    .text:000000000000007c .L0 
     /tmp/cc5ud44b.s:104    .text:000000000000007c .L0 
     /tmp/cc5ud44b.s:109    .text:000000000000008c .L0 
     /tmp/cc5ud44b.s:110    .text:000000000000008c .L0 
     /tmp/cc5ud44b.s:114    .text:0000000000000098 .L0 
     /tmp/cc5ud44b.s:115    .text:0000000000000098 .L0 
     /tmp/cc5ud44b.s:119    .text:00000000000000a8 .L0 
     /tmp/cc5ud44b.s:120    .text:00000000000000ac .L0 
     /tmp/cc5ud44b.s:122    .text:00000000000000b0 .L0 
     /tmp/cc5ud44b.s:123    .text:00000000000000b0 .L0 
     /tmp/cc5ud44b.s:125    .text:00000000000000b4 .L0 
     /tmp/cc5ud44b.s:128    .text:00000000000000b8 .L0 
     /tmp/cc5ud44b.s:130    .text:00000000000000bc .L0 
     /tmp/cc5ud44b.s:145    .text:00000000000000bc .L0 
     /tmp/cc5ud44b.s:135    .rodata.str1.8:0000000000000000 .LC0
GAS LISTING /tmp/cc5ud44b.s 			page 6


     /tmp/cc5ud44b.s:104    .text:000000000000007c .L0 
     /tmp/cc5ud44b.s:138    .rodata.str1.8:0000000000000018 .LC1
     /tmp/cc5ud44b.s:115    .text:0000000000000098 .L0 
     /tmp/cc5ud44b.s:89     .text:0000000000000064 .L11
     /tmp/cc5ud44b.s:435    .debug_abbrev:0000000000000000 .Ldebug_abbrev0
     /tmp/cc5ud44b.s:763    .debug_str:0000000000000045 .LASF32
     /tmp/cc5ud44b.s:767    .debug_str:000000000000010e .LASF33
     /tmp/cc5ud44b.s:815    .debug_str:0000000000000259 .LASF34
     /tmp/cc5ud44b.s:8      .text:0000000000000000 .Ltext0
     /tmp/cc5ud44b.s:141    .text:00000000000000bc .Letext0
     /tmp/cc5ud44b.s:751    .debug_line:0000000000000000 .Ldebug_line0
     /tmp/cc5ud44b.s:797    .debug_str:00000000000001d7 .LASF0
     /tmp/cc5ud44b.s:785    .debug_str:0000000000000186 .LASF1
     /tmp/cc5ud44b.s:779    .debug_str:000000000000015a .LASF2
     /tmp/cc5ud44b.s:761    .debug_str:000000000000003e .LASF4
     /tmp/cc5ud44b.s:783    .debug_str:0000000000000174 .LASF3
     /tmp/cc5ud44b.s:755    .debug_str:000000000000000e .LASF5
     /tmp/cc5ud44b.s:817    .debug_str:000000000000026c .LASF6
     /tmp/cc5ud44b.s:773    .debug_str:000000000000012f .LASF7
     /tmp/cc5ud44b.s:801    .debug_str:00000000000001e9 .LASF8
     /tmp/cc5ud44b.s:753    .debug_str:0000000000000000 .LASF9
     /tmp/cc5ud44b.s:821    .debug_str:000000000000028b .LASF10
     /tmp/cc5ud44b.s:775    .debug_str:0000000000000142 .LASF11
     /tmp/cc5ud44b.s:813    .debug_str:0000000000000249 .LASF12
     /tmp/cc5ud44b.s:805    .debug_str:000000000000020f .LASF13
     /tmp/cc5ud44b.s:781    .debug_str:0000000000000168 .LASF14
     /tmp/cc5ud44b.s:759    .debug_str:0000000000000028 .LASF15
     /tmp/cc5ud44b.s:803    .debug_str:00000000000001f9 .LASF16
     /tmp/cc5ud44b.s:765    .debug_str:0000000000000109 .LASF17
     /tmp/cc5ud44b.s:789    .debug_str:00000000000001a7 .LASF21
     /tmp/cc5ud44b.s:795    .debug_str:00000000000001c9 .LASF23
     /tmp/cc5ud44b.s:82     .text:000000000000005c .LFB38
     /tmp/cc5ud44b.s:131    .text:00000000000000bc .LFE38
     /tmp/cc5ud44b.s:793    .debug_str:00000000000001bf .LASF18
     /tmp/cc5ud44b.s:678    .debug_loc:0000000000000000 .LLST2
     /tmp/cc5ud44b.s:787    .debug_str:0000000000000199 .LASF19
     /tmp/cc5ud44b.s:692    .debug_loc:0000000000000039 .LLST3
     /tmp/cc5ud44b.s:107    .text:000000000000008c .LVL7
     /tmp/cc5ud44b.s:112    .text:0000000000000098 .LVL8
     /tmp/cc5ud44b.s:117    .text:00000000000000a8 .LVL9
     /tmp/cc5ud44b.s:799    .debug_str:00000000000001e4 .LASF20
     /tmp/cc5ud44b.s:771    .debug_str:0000000000000123 .LASF22
     /tmp/cc5ud44b.s:807    .debug_str:000000000000021f .LASF24
     /tmp/cc5ud44b.s:50     .text:0000000000000034 .LFB37
     /tmp/cc5ud44b.s:76     .text:000000000000005c .LFE37
     /tmp/cc5ud44b.s:769    .debug_str:000000000000011c .LASF25
     /tmp/cc5ud44b.s:710    .debug_loc:0000000000000085 .LLST1
     /tmp/cc5ud44b.s:65     .text:000000000000004c .LVL4
     /tmp/cc5ud44b.s:791    .debug_str:00000000000001ae .LASF26
     /tmp/cc5ud44b.s:13     .text:0000000000000000 .LFB36
     /tmp/cc5ud44b.s:44     .text:0000000000000034 .LFE36
     /tmp/cc5ud44b.s:811    .debug_str:0000000000000241 .LASF27
     /tmp/cc5ud44b.s:724    .debug_loc:00000000000000be .LLST0
     /tmp/cc5ud44b.s:33     .text:0000000000000024 .LVL2
     /tmp/cc5ud44b.s:757    .debug_str:0000000000000015 .LASF28
     /tmp/cc5ud44b.s:819    .debug_str:000000000000027f .LASF30
     /tmp/cc5ud44b.s:809    .debug_str:0000000000000232 .LASF29
GAS LISTING /tmp/cc5ud44b.s 			page 7


     /tmp/cc5ud44b.s:777    .debug_str:0000000000000151 .LASF31
     /tmp/cc5ud44b.s:85     .text:000000000000005c .LVL5
     /tmp/cc5ud44b.s:105    .text:0000000000000084 .LVL6
     /tmp/cc5ud44b.s:126    .text:00000000000000b4 .LVL10
     /tmp/cc5ud44b.s:53     .text:0000000000000034 .LVL3
     /tmp/cc5ud44b.s:17     .text:0000000000000000 .LVL0
     /tmp/cc5ud44b.s:31     .text:000000000000001c .LVL1
     /tmp/cc5ud44b.s:146    .debug_info:0000000000000000 .Ldebug_info0

UNDEFINED SYMBOLS
_Z8printIntiii
_Z11printStringPKc
