GAS LISTING /tmp/cc3KEY6T.s 			page 1


   1              		.file	"scheduler.cpp"
   2              		.option nopic
   3              		.option norelax
   4              		.attribute arch, "rv64i2p0_m2p0_a2p0"
   5              		.attribute unaligned_access, 0
   6              		.attribute stack_align, 16
   7              		.text
   8              	.Ltext0:
   9              		.section	.text._ZN14SleepingThread15_scheduler_ruleEPS_S0_Rm,"axG",@progbits,_ZN14SleepingThread15
  10              		.align	2
  11              		.weak	_ZN14SleepingThread15_scheduler_ruleEPS_S0_Rm
  13              	_ZN14SleepingThread15_scheduler_ruleEPS_S0_Rm:
  14              	.LFB12:
  15              		.file 1 "src/../h/scheduler.hpp"
   1:src/../h/scheduler.hpp **** //
   2:src/../h/scheduler.hpp **** // Created by marko on 20.4.22..
   3:src/../h/scheduler.hpp **** //
   4:src/../h/scheduler.hpp **** 
   5:src/../h/scheduler.hpp **** #ifndef OS1_VEZBE07_RISCV_CONTEXT_SWITCH_2_INTERRUPT_SCHEDULER_HPP
   6:src/../h/scheduler.hpp **** #define OS1_VEZBE07_RISCV_CONTEXT_SWITCH_2_INTERRUPT_SCHEDULER_HPP
   7:src/../h/scheduler.hpp **** 
   8:src/../h/scheduler.hpp **** #include "list.hpp"
   9:src/../h/scheduler.hpp **** #include "print.hpp"
  10:src/../h/scheduler.hpp **** #include "../lib/hw.h"
  11:src/../h/scheduler.hpp **** 
  12:src/../h/scheduler.hpp **** class TCB;
  13:src/../h/scheduler.hpp **** 
  14:src/../h/scheduler.hpp **** typedef TCB* thread_t;
  15:src/../h/scheduler.hpp **** 
  16:src/../h/scheduler.hpp **** struct SleepingThread {
  17:src/../h/scheduler.hpp ****     thread_t tcb_;
  18:src/../h/scheduler.hpp ****     uint64 time_slices_left_;
  19:src/../h/scheduler.hpp ****     SleepingThread(TCB *tcb, uint64 time_slices_left) : tcb_(tcb), time_slices_left_(time_slices_le
  20:src/../h/scheduler.hpp **** 
  21:src/../h/scheduler.hpp ****     static bool _scheduler_rule(SleepingThread *prev, SleepingThread *curr, uint64& counter) {
  16              		.loc 1 21 17
  17              		.cfi_startproc
  18              	.LVL0:
  19 0000 130101FF 		addi	sp,sp,-16
  20              		.cfi_def_cfa_offset 16
  21 0004 23348100 		sd	s0,8(sp)
  22              		.cfi_offset 8, -8
  23 0008 13040101 		addi	s0,sp,16
  24              		.cfi_def_cfa 8, 0
  22:src/../h/scheduler.hpp ****         counter += prev->time_slices_left_;
  25              		.loc 1 22 9
  26              		.loc 1 22 26 is_stmt 0
  27 000c 03358500 		ld	a0,8(a0)
  28              	.LVL1:
  29              		.loc 1 22 17
  30 0010 83370600 		ld	a5,0(a2)
  31 0014 3305F500 		add	a0,a0,a5
  32 0018 2330A600 		sd	a0,0(a2)
  23:src/../h/scheduler.hpp ****         return counter >= curr->time_slices_left_;
  33              		.loc 1 23 9 is_stmt 1
  34              		.loc 1 23 33 is_stmt 0
  35 001c 83B78500 		ld	a5,8(a1)
GAS LISTING /tmp/cc3KEY6T.s 			page 2


  36 0020 3335F500 		sltu	a0,a0,a5
  24:src/../h/scheduler.hpp ****     }
  37              		.loc 1 24 5
  38 0024 13451500 		xori	a0,a0,1
  39 0028 03348100 		ld	s0,8(sp)
  40              		.cfi_restore 8
  41              		.cfi_def_cfa 2, 16
  42 002c 13010101 		addi	sp,sp,16
  43              		.cfi_def_cfa_offset 0
  44 0030 67800000 		jr	ra
  45              		.cfi_endproc
  46              	.LFE12:
  48              		.text
  49              		.align	2
  51              	_Z41__static_initialization_and_destruction_0ii:
  52              	.LFB48:
  53              		.file 2 "src/scheduler.cpp"
   1:src/scheduler.cpp **** //
   2:src/scheduler.cpp **** // Created by marko on 20.4.22..
   3:src/scheduler.cpp **** //
   4:src/scheduler.cpp **** 
   5:src/scheduler.cpp **** #include "../h/scheduler.hpp"
   6:src/scheduler.cpp **** #include "../h/tcb.hpp"
   7:src/scheduler.cpp **** 
   8:src/scheduler.cpp **** List<TCB> Scheduler::readyThreadQueue;
   9:src/scheduler.cpp **** List<SleepingThread> Scheduler::sleepingThreadQueue;
  10:src/scheduler.cpp **** 
  11:src/scheduler.cpp **** TCB *Scheduler::get()
  12:src/scheduler.cpp **** {
  13:src/scheduler.cpp ****     return readyThreadQueue.removeFirst();
  14:src/scheduler.cpp **** }
  15:src/scheduler.cpp **** 
  16:src/scheduler.cpp **** void Scheduler::put(TCB *ccb)
  17:src/scheduler.cpp **** {
  18:src/scheduler.cpp ****     readyThreadQueue.addLast(ccb);
  19:src/scheduler.cpp **** }
  20:src/scheduler.cpp **** 
  21:src/scheduler.cpp **** void Scheduler::putToSleep(uint64 time_slices_left)
  22:src/scheduler.cpp **** {
  23:src/scheduler.cpp ****     thread_t t = TCB::running;
  24:src/scheduler.cpp ****     t->setSleeping(true);
  25:src/scheduler.cpp ****     // TODO: Do not add last, add where appropriate.
  26:src/scheduler.cpp ****     sleepingThreadQueue.addByRule(new SleepingThread(t, time_slices_left), SleepingThread::_schedul
  27:src/scheduler.cpp ****     TCB::yield();
  28:src/scheduler.cpp **** }
  29:src/scheduler.cpp **** 
  30:src/scheduler.cpp **** void Scheduler::maybeWakeThreads() {
  31:src/scheduler.cpp ****     // Every time this is called, we expect to have passed a single time_slice.
  32:src/scheduler.cpp **** 
  33:src/scheduler.cpp ****     SleepingThread *st = sleepingThreadQueue.peekFirst();
  34:src/scheduler.cpp ****     if (st) {
  35:src/scheduler.cpp ****         st->time_slices_left_--;
  36:src/scheduler.cpp ****         assert(st->time_slices_left_ >= 0, "Thread should already be out of sleep.");
  37:src/scheduler.cpp ****     }
  38:src/scheduler.cpp **** 
  39:src/scheduler.cpp ****     // After decrementing, check if the thread is ready to wake up.
  40:src/scheduler.cpp ****     while (st && st->time_slices_left_ == 0) {
GAS LISTING /tmp/cc3KEY6T.s 			page 3


  41:src/scheduler.cpp ****         // If the first thread is ready to wake up, unsleep it and add it back
  42:src/scheduler.cpp ****         // to the ready queue. It will be called at some point.
  43:src/scheduler.cpp ****         sleepingThreadQueue.removeFirst();
  44:src/scheduler.cpp ****         st->tcb_->setSleeping(false);
  45:src/scheduler.cpp ****         readyThreadQueue.addLast(st->tcb_);
  46:src/scheduler.cpp **** 
  47:src/scheduler.cpp ****         // Delete the sleeping thread object we created.
  48:src/scheduler.cpp ****         delete st;
  49:src/scheduler.cpp **** 
  50:src/scheduler.cpp ****         st = sleepingThreadQueue.peekFirst();
  51:src/scheduler.cpp ****     }
  52:src/scheduler.cpp **** }...
  54              		.loc 2 52 1 is_stmt 1
  55              		.cfi_startproc
  56              	.LVL2:
  57 0000 130101FF 		addi	sp,sp,-16
  58              		.cfi_def_cfa_offset 16
  59 0004 23348100 		sd	s0,8(sp)
  60              		.cfi_offset 8, -8
  61 0008 13040101 		addi	s0,sp,16
  62              		.cfi_def_cfa 8, 0
  63              		.loc 2 52 1 is_stmt 0
  64 000c 93071000 		li	a5,1
  65 0010 6308F500 		beq	a0,a5,.L6
  66              	.L3:
  67 0014 03348100 		ld	s0,8(sp)
  68              		.cfi_remember_state
  69              		.cfi_restore 8
  70              		.cfi_def_cfa 2, 16
  71 0018 13010101 		addi	sp,sp,16
  72              		.cfi_def_cfa_offset 0
  73 001c 67800000 		jr	ra
  74              	.L6:
  75              		.cfi_restore_state
  76              		.loc 2 52 1 discriminator 1
  77 0020 B7070100 		li	a5,65536
  78 0024 9387F7FF 		addi	a5,a5,-1
  79 0028 E396F5FE 		bne	a1,a5,.L3
  80              	.LVL3:
  81              	.LBB37:
  82              	.LBB38:
  83              	.LBB39:
  84              		.file 3 "src/../h/list.hpp"
   1:src/../h/list.hpp **** #ifndef LIST_HPP
   2:src/../h/list.hpp **** #define LIST_HPP
   3:src/../h/list.hpp **** 
   4:src/../h/list.hpp **** #include "../lib/hw.h"
   5:src/../h/list.hpp **** 
   6:src/../h/list.hpp **** template<typename T>
   7:src/../h/list.hpp **** class List
   8:src/../h/list.hpp **** {
   9:src/../h/list.hpp **** private:
  10:src/../h/list.hpp ****     struct Elem
  11:src/../h/list.hpp ****     {
  12:src/../h/list.hpp ****         T *data;
  13:src/../h/list.hpp ****         Elem *next;
  14:src/../h/list.hpp **** 
GAS LISTING /tmp/cc3KEY6T.s 			page 4


  15:src/../h/list.hpp ****         Elem(T *data, Elem *next) : data(data), next(next) {}
  16:src/../h/list.hpp ****     };
  17:src/../h/list.hpp **** 
  18:src/../h/list.hpp ****     Elem *head, *tail;
  19:src/../h/list.hpp **** 
  20:src/../h/list.hpp **** public:
  21:src/../h/list.hpp ****     List() : head(0), tail(0) {}
  85              		.loc 3 21 29
  86 002c 97070000 		lla	a5,.LANCHOR0
  86      93870700 
  87 0034 23B00700 		sd	zero,0(a5)
  88 0038 23B40700 		sd	zero,8(a5)
  89              	.LVL4:
  90              	.LBE39:
  91              	.LBE38:
  92              	.LBE37:
  93              	.LBB40:
  94              	.LBB41:
  95              	.LBB42:
  96 003c 23B80700 		sd	zero,16(a5)
  97 0040 23BC0700 		sd	zero,24(a5)
  98              	.LBE42:
  99              	.LBE41:
 100              	.LBE40:
 101              		.loc 2 52 1
 102 0044 6FF01FFD 		j	.L3
 103              		.cfi_endproc
 104              	.LFE48:
 106              		.align	2
 107              		.globl	_ZN9Scheduler3getEv
 109              	_ZN9Scheduler3getEv:
 110              	.LFB27:
  12:src/scheduler.cpp **** {
 111              		.loc 2 12 1 is_stmt 1
 112              		.cfi_startproc
 113 0048 130101FE 		addi	sp,sp,-32
 114              		.cfi_def_cfa_offset 32
 115 004c 233C1100 		sd	ra,24(sp)
 116 0050 23388100 		sd	s0,16(sp)
 117 0054 23349100 		sd	s1,8(sp)
 118              		.cfi_offset 1, -8
 119              		.cfi_offset 8, -16
 120              		.cfi_offset 9, -24
 121 0058 13040102 		addi	s0,sp,32
 122              		.cfi_def_cfa 8, 0
  13:src/scheduler.cpp ****     return readyThreadQueue.removeFirst();
 123              		.loc 2 13 5
 124              	.LVL5:
 125              	.LBB43:
 126              	.LBB44:
  22:src/../h/list.hpp **** 
  23:src/../h/list.hpp ****     List(const List<T> &) = delete;
  24:src/../h/list.hpp **** 
  25:src/../h/list.hpp ****     List<T> &operator=(const List<T> &) = delete;
  26:src/../h/list.hpp **** 
  27:src/../h/list.hpp ****     void addFirst(T *data)
  28:src/../h/list.hpp ****     {
GAS LISTING /tmp/cc3KEY6T.s 			page 5


  29:src/../h/list.hpp ****         Elem *elem = new Elem(data, head);
  30:src/../h/list.hpp ****         head = elem;
  31:src/../h/list.hpp ****         if (!tail) { tail = head; }
  32:src/../h/list.hpp ****     }
  33:src/../h/list.hpp **** 
  34:src/../h/list.hpp ****     void addLast(T *data)
  35:src/../h/list.hpp ****     {
  36:src/../h/list.hpp ****         Elem *elem = new Elem(data, 0);
  37:src/../h/list.hpp ****         if (tail)
  38:src/../h/list.hpp ****         {
  39:src/../h/list.hpp ****             tail->next = elem;
  40:src/../h/list.hpp ****             tail = elem;
  41:src/../h/list.hpp ****         } else
  42:src/../h/list.hpp ****         {
  43:src/../h/list.hpp ****             head = tail = elem;
  44:src/../h/list.hpp ****         }
  45:src/../h/list.hpp ****     }
  46:src/../h/list.hpp **** 
  47:src/../h/list.hpp ****     T *removeFirst()
  48:src/../h/list.hpp ****     {
  49:src/../h/list.hpp ****         if (!head) { return 0; }
 127              		.loc 3 49 14 is_stmt 0
 128 005c 97070000 		lla	a5,.LANCHOR0
 128      93870700 
 129 0064 03B50700 		ld	a0,0(a5)
 130              		.loc 3 49 9
 131 0068 63020504 		beq	a0,zero,.L10
 132              	.LVL6:
  50:src/../h/list.hpp **** 
  51:src/../h/list.hpp ****         Elem *elem = head;
  52:src/../h/list.hpp ****         head = head->next;
 133              		.loc 3 52 22
 134 006c 83378500 		ld	a5,8(a0)
 135              		.loc 3 52 9
 136 0070 17070000 		sd	a5,.LANCHOR0,a4
 136      2330F700 
  53:src/../h/list.hpp ****         if (!head) { tail = 0; }
 137              		.loc 3 53 9
 138 0078 63840702 		beq	a5,zero,.L12
 139              	.L9:
  54:src/../h/list.hpp **** 
  55:src/../h/list.hpp ****         T *ret = elem->data;
 140              		.loc 3 55 12
 141 007c 83340500 		ld	s1,0(a0)
 142              	.LVL7:
  56:src/../h/list.hpp ****         delete elem;
 143              		.loc 3 56 9
 144 0080 97000000 		call	_ZdlPv
 144      E7800000 
 145              	.LVL8:
 146              	.L7:
 147              	.LBE44:
 148              	.LBE43:
  14:src/scheduler.cpp **** }
 149              		.loc 2 14 1
 150 0088 13850400 		mv	a0,s1
 151 008c 83308101 		ld	ra,24(sp)
GAS LISTING /tmp/cc3KEY6T.s 			page 6


 152              		.cfi_remember_state
 153              		.cfi_restore 1
 154 0090 03340101 		ld	s0,16(sp)
 155              		.cfi_restore 8
 156              		.cfi_def_cfa 2, 32
 157 0094 83348100 		ld	s1,8(sp)
 158              		.cfi_restore 9
 159 0098 13010102 		addi	sp,sp,32
 160              		.cfi_def_cfa_offset 0
 161 009c 67800000 		jr	ra
 162              	.LVL9:
 163              	.L12:
 164              		.cfi_restore_state
 165              	.LBB46:
 166              	.LBB45:
  53:src/../h/list.hpp **** 
 167              		.loc 3 53 22
 168 00a0 97070000 		sd	zero,.LANCHOR0+8,a5
 168      23B00700 
 169 00a8 6FF05FFD 		j	.L9
 170              	.LVL10:
 171              	.L10:
  49:src/../h/list.hpp **** 
 172              		.loc 3 49 29
 173 00ac 93040500 		mv	s1,a0
 174              	.LVL11:
 175              	.LBE45:
 176              	.LBE46:
  13:src/scheduler.cpp ****     return readyThreadQueue.removeFirst();
 177              		.loc 2 13 41
 178 00b0 6FF09FFD 		j	.L7
 179              		.cfi_endproc
 180              	.LFE27:
 182              		.align	2
 183              		.globl	_ZN9Scheduler3putEP3TCB
 185              	_ZN9Scheduler3putEP3TCB:
 186              	.LFB28:
  17:src/scheduler.cpp **** {
 187              		.loc 2 17 1 is_stmt 1
 188              		.cfi_startproc
 189              	.LVL12:
 190 00b4 130101FE 		addi	sp,sp,-32
 191              		.cfi_def_cfa_offset 32
 192 00b8 233C1100 		sd	ra,24(sp)
 193 00bc 23388100 		sd	s0,16(sp)
 194 00c0 23349100 		sd	s1,8(sp)
 195              		.cfi_offset 1, -8
 196              		.cfi_offset 8, -16
 197              		.cfi_offset 9, -24
 198 00c4 13040102 		addi	s0,sp,32
 199              		.cfi_def_cfa 8, 0
 200 00c8 93040500 		mv	s1,a0
  18:src/scheduler.cpp ****     readyThreadQueue.addLast(ccb);
 201              		.loc 2 18 5
 202              	.LVL13:
 203              	.LBB47:
 204              	.LBB48:
GAS LISTING /tmp/cc3KEY6T.s 			page 7


  36:src/../h/list.hpp ****         if (tail)
 205              		.loc 3 36 22 is_stmt 0
 206 00cc 13050001 		li	a0,16
 207              	.LVL14:
 208 00d0 97000000 		call	_Znwm
 208      E7800000 
 209              	.LVL15:
 210              	.LBB49:
 211              	.LBB50:
  15:src/../h/list.hpp ****     };
 212              		.loc 3 15 58
 213 00d8 23309500 		sd	s1,0(a0)
 214 00dc 23340500 		sd	zero,8(a0)
 215              	.LVL16:
 216              	.LBE50:
 217              	.LBE49:
  37:src/../h/list.hpp ****         {
 218              		.loc 3 37 13
 219 00e0 97070000 		lla	a5,.LANCHOR0
 219      93870700 
 220 00e8 83B78700 		ld	a5,8(a5)
  37:src/../h/list.hpp ****         {
 221              		.loc 3 37 9
 222 00ec 63820702 		beq	a5,zero,.L14
  39:src/../h/list.hpp ****             tail = elem;
 223              		.loc 3 39 13
 224 00f0 23B4A700 		sd	a0,8(a5)
  40:src/../h/list.hpp ****         } else
 225              		.loc 3 40 13
 226 00f4 97070000 		sd	a0,.LANCHOR0+8,a5
 226      23B0A700 
 227              	.LVL17:
 228              	.L13:
 229              	.LBE48:
 230              	.LBE47:
  19:src/scheduler.cpp **** }
 231              		.loc 2 19 1
 232 00fc 83308101 		ld	ra,24(sp)
 233              		.cfi_remember_state
 234              		.cfi_restore 1
 235 0100 03340101 		ld	s0,16(sp)
 236              		.cfi_restore 8
 237              		.cfi_def_cfa 2, 32
 238 0104 83348100 		ld	s1,8(sp)
 239              		.cfi_restore 9
 240              	.LVL18:
 241 0108 13010102 		addi	sp,sp,32
 242              		.cfi_def_cfa_offset 0
 243 010c 67800000 		jr	ra
 244              	.LVL19:
 245              	.L14:
 246              		.cfi_restore_state
 247              	.LBB52:
 248              	.LBB51:
  43:src/../h/list.hpp ****         }
 249              		.loc 3 43 13
 250 0110 97070000 		lla	a5,.LANCHOR0
GAS LISTING /tmp/cc3KEY6T.s 			page 8


 250      93870700 
 251 0118 23B4A700 		sd	a0,8(a5)
 252 011c 23B0A700 		sd	a0,0(a5)
 253              	.LVL20:
 254              	.LBE51:
 255              	.LBE52:
  19:src/scheduler.cpp **** }
 256              		.loc 2 19 1
 257 0120 6FF0DFFD 		j	.L13
 258              		.cfi_endproc
 259              	.LFE28:
 261              		.align	2
 262              		.globl	_ZN9Scheduler10putToSleepEm
 264              	_ZN9Scheduler10putToSleepEm:
 265              	.LFB29:
  22:src/scheduler.cpp **** {
 266              		.loc 2 22 1 is_stmt 1
 267              		.cfi_startproc
 268              	.LVL21:
 269 0124 130101FC 		addi	sp,sp,-64
 270              		.cfi_def_cfa_offset 64
 271 0128 233C1102 		sd	ra,56(sp)
 272 012c 23388102 		sd	s0,48(sp)
 273 0130 23349102 		sd	s1,40(sp)
 274 0134 23302103 		sd	s2,32(sp)
 275 0138 233C3101 		sd	s3,24(sp)
 276              		.cfi_offset 1, -8
 277              		.cfi_offset 8, -16
 278              		.cfi_offset 9, -24
 279              		.cfi_offset 18, -32
 280              		.cfi_offset 19, -40
 281 013c 13040104 		addi	s0,sp,64
 282              		.cfi_def_cfa 8, 0
 283 0140 93090500 		mv	s3,a0
  23:src/scheduler.cpp ****     thread_t t = TCB::running;
 284              		.loc 2 23 5
  23:src/scheduler.cpp ****     thread_t t = TCB::running;
 285              		.loc 2 23 14 is_stmt 0
 286 0144 97070000 		lla	a5,_ZN3TCB7runningE
 286      93870700 
 287 014c 83B40700 		ld	s1,0(a5)
 288              	.LVL22:
  24:src/scheduler.cpp ****     t->setSleeping(true);
 289              		.loc 2 24 5 is_stmt 1
 290              	.LBB63:
 291              	.LBB64:
 292              		.file 4 "src/../h/tcb.hpp"
   1:src/../h/tcb.hpp **** //
   2:src/../h/tcb.hpp **** // Created by marko on 20.4.22..
   3:src/../h/tcb.hpp **** //
   4:src/../h/tcb.hpp **** 
   5:src/../h/tcb.hpp **** #ifndef OS1_VEZBE07_RISCV_CONTEXT_SWITCH_2_INTERRUPT_TCB_HPP
   6:src/../h/tcb.hpp **** #define OS1_VEZBE07_RISCV_CONTEXT_SWITCH_2_INTERRUPT_TCB_HPP
   7:src/../h/tcb.hpp **** 
   8:src/../h/tcb.hpp **** #include "../lib/hw.h"
   9:src/../h/tcb.hpp **** #include "scheduler.hpp"
  10:src/../h/tcb.hpp **** 
GAS LISTING /tmp/cc3KEY6T.s 			page 9


  11:src/../h/tcb.hpp **** // Thread Control Block
  12:src/../h/tcb.hpp **** class TCB
  13:src/../h/tcb.hpp **** {
  14:src/../h/tcb.hpp **** public:
  15:src/../h/tcb.hpp ****     ~TCB() { delete[] stack; }
  16:src/../h/tcb.hpp **** 
  17:src/../h/tcb.hpp ****     bool isFinished() const { return finished_; }
  18:src/../h/tcb.hpp **** 
  19:src/../h/tcb.hpp ****     void setFinished(bool value) { finished_ = value; }
  20:src/../h/tcb.hpp **** 
  21:src/../h/tcb.hpp ****     void block() { blocked_ = true; }
  22:src/../h/tcb.hpp **** 
  23:src/../h/tcb.hpp ****     void unblock() { blocked_ = false; }
  24:src/../h/tcb.hpp **** 
  25:src/../h/tcb.hpp ****     bool isBlocked() { return blocked_; }
  26:src/../h/tcb.hpp **** 
  27:src/../h/tcb.hpp ****     void setSleeping(bool value) { sleeping_ = value; }
 293              		.loc 4 27 36
 294              		.loc 4 27 46 is_stmt 0
 295 0150 93071000 		li	a5,1
 296 0154 2389F402 		sb	a5,50(s1)
 297              	.LVL23:
 298              	.LBE64:
 299              	.LBE63:
  26:src/scheduler.cpp ****     sleepingThreadQueue.addByRule(new SleepingThread(t, time_slices_left), SleepingThread::_schedul
 300              		.loc 2 26 5 is_stmt 1
  26:src/scheduler.cpp ****     sleepingThreadQueue.addByRule(new SleepingThread(t, time_slices_left), SleepingThread::_schedul
 301              		.loc 2 26 73 is_stmt 0
 302 0158 13050001 		li	a0,16
 303              	.LVL24:
 304 015c 97000000 		call	_Znwm
 304      E7800000 
 305              	.LVL25:
 306 0164 13090500 		mv	s2,a0
 307              	.LVL26:
 308              	.LBB65:
 309              	.LBB66:
  19:src/../h/scheduler.hpp **** 
 310              		.loc 1 19 102
 311 0168 23309500 		sd	s1,0(a0)
 312 016c 23343501 		sd	s3,8(a0)
 313              	.LVL27:
 314 0170 233404FC 		sd	zero,-56(s0)
 315              	.LVL28:
 316              	.LBE66:
 317              	.LBE65:
 318              	.LBB67:
 319              	.LBB68:
  57:src/../h/list.hpp ****         return ret;
  58:src/../h/list.hpp ****     }
  59:src/../h/list.hpp **** 
  60:src/../h/list.hpp ****     T *peekFirst()
  61:src/../h/list.hpp ****     {
  62:src/../h/list.hpp ****         if (!head) { return 0; }
  63:src/../h/list.hpp ****         return head->data;
  64:src/../h/list.hpp ****     }
  65:src/../h/list.hpp **** 
GAS LISTING /tmp/cc3KEY6T.s 			page 10


  66:src/../h/list.hpp ****     T *removeLast()
  67:src/../h/list.hpp ****     {
  68:src/../h/list.hpp ****         if (!head) { return 0; }
  69:src/../h/list.hpp **** 
  70:src/../h/list.hpp ****         Elem *prev = 0;
  71:src/../h/list.hpp ****         for (Elem *curr = head; curr && curr != tail; curr = curr->next)
  72:src/../h/list.hpp ****         {
  73:src/../h/list.hpp ****             prev = curr;
  74:src/../h/list.hpp ****         }
  75:src/../h/list.hpp **** 
  76:src/../h/list.hpp ****         Elem *elem = tail;
  77:src/../h/list.hpp ****         if (prev) { prev->next = 0; }
  78:src/../h/list.hpp ****         else { head = 0; }
  79:src/../h/list.hpp ****         tail = prev;
  80:src/../h/list.hpp **** 
  81:src/../h/list.hpp ****         T *ret = elem->data;
  82:src/../h/list.hpp ****         delete elem;
  83:src/../h/list.hpp ****         return ret;
  84:src/../h/list.hpp ****     }
  85:src/../h/list.hpp **** 
  86:src/../h/list.hpp ****     T *peekLast()
  87:src/../h/list.hpp ****     {
  88:src/../h/list.hpp ****         if (!tail) { return 0; }
  89:src/../h/list.hpp ****         return tail->data;
  90:src/../h/list.hpp ****     }
  91:src/../h/list.hpp **** 
  92:src/../h/list.hpp ****     // Rule defines ordering. rule(prev, curr) and rule(curr, next) should be true.
  93:src/../h/list.hpp ****     void addByRule(T *data, bool (*rule)(T *, T *, uint64&), uint64 counter) {
  94:src/../h/list.hpp ****         Elem* prev = nullptr, *curr = head;
 320              		.loc 3 94 32
 321 0174 97070000 		lla	a5,.LANCHOR0
 321      93870700 
 322 017c 83B40701 		ld	s1,16(a5)
 323              	.LVL29:
 324              		.loc 3 94 15
 325 0180 93090000 		li	s3,0
 326              	.LVL30:
 327              	.L19:
  95:src/../h/list.hpp ****         while (curr && !rule(curr->data, data, counter)) {
 328              		.loc 3 95 21
 329 0184 63840402 		beq	s1,zero,.L18
 330              		.loc 3 95 29
 331 0188 130684FC 		addi	a2,s0,-56
 332 018c 93050900 		mv	a1,s2
 333 0190 03B50400 		ld	a0,0(s1)
 334 0194 97000000 		call	_ZN14SleepingThread15_scheduler_ruleEPS_S0_Rm
 334      E7800000 
 335              	.LVL31:
 336              		.loc 3 95 21
 337 019c 63180500 		bne	a0,zero,.L18
 338              	.LVL32:
  96:src/../h/list.hpp ****             prev = curr;
 339              		.loc 3 96 13
 340 01a0 93890400 		mv	s3,s1
  97:src/../h/list.hpp ****             curr = curr->next;
 341              		.loc 3 97 13
 342 01a4 83B48400 		ld	s1,8(s1)
GAS LISTING /tmp/cc3KEY6T.s 			page 11


 343              	.LVL33:
 344 01a8 6FF0DFFD 		j	.L19
 345              	.L18:
  98:src/../h/list.hpp ****         }
  99:src/../h/list.hpp ****         Elem* elem = new Elem(data, curr);
 346              		.loc 3 99 22
 347 01ac 13050001 		li	a0,16
 348 01b0 97000000 		call	_Znwm
 348      E7800000 
 349              	.LVL34:
 350              	.LBB69:
 351              	.LBB70:
  15:src/../h/list.hpp ****     };
 352              		.loc 3 15 58
 353 01b8 23302501 		sd	s2,0(a0)
 354 01bc 23349500 		sd	s1,8(a0)
 355              	.LVL35:
 356              	.LBE70:
 357              	.LBE69:
 100:src/../h/list.hpp ****         if (prev) { prev->next = elem; }
 358              		.loc 3 100 9
 359 01c0 63880902 		beq	s3,zero,.L20
 360              		.loc 3 100 21
 361 01c4 23B4A900 		sd	a0,8(s3)
 362              	.L21:
 101:src/../h/list.hpp ****         else { head = elem; }
 102:src/../h/list.hpp ****         if (!curr) { tail = elem; }
 363              		.loc 3 102 9
 364 01c8 638A0402 		beq	s1,zero,.L24
 365              	.L22:
 366              	.LVL36:
 367              	.LBE68:
 368              	.LBE67:
  27:src/scheduler.cpp ****     TCB::yield();
 369              		.loc 2 27 5 is_stmt 1
  27:src/scheduler.cpp ****     TCB::yield();
 370              		.loc 2 27 15 is_stmt 0
 371 01cc 97000000 		call	_ZN3TCB5yieldEv
 371      E7800000 
 372              	.LVL37:
  28:src/scheduler.cpp **** }
 373              		.loc 2 28 1
 374 01d4 83308103 		ld	ra,56(sp)
 375              		.cfi_remember_state
 376              		.cfi_restore 1
 377 01d8 03340103 		ld	s0,48(sp)
 378              		.cfi_restore 8
 379              		.cfi_def_cfa 2, 64
 380 01dc 83348102 		ld	s1,40(sp)
 381              		.cfi_restore 9
 382 01e0 03390102 		ld	s2,32(sp)
 383              		.cfi_restore 18
 384 01e4 83398101 		ld	s3,24(sp)
 385              		.cfi_restore 19
 386 01e8 13010104 		addi	sp,sp,64
 387              		.cfi_def_cfa_offset 0
 388 01ec 67800000 		jr	ra
GAS LISTING /tmp/cc3KEY6T.s 			page 12


 389              	.LVL38:
 390              	.L20:
 391              		.cfi_restore_state
 392              	.LBB72:
 393              	.LBB71:
 101:src/../h/list.hpp ****         else { head = elem; }
 394              		.loc 3 101 16
 395 01f0 97070000 		sd	a0,.LANCHOR0+16,a5
 395      23B0A700 
 396 01f8 6FF01FFD 		j	.L21
 397              	.L24:
 398              		.loc 3 102 22
 399 01fc 97070000 		sd	a0,.LANCHOR0+24,a5
 399      23B0A700 
 400 0204 6FF09FFC 		j	.L22
 401              	.LBE71:
 402              	.LBE72:
 403              		.cfi_endproc
 404              	.LFE29:
 406              		.align	2
 407              		.globl	_ZN9Scheduler16maybeWakeThreadsEv
 409              	_ZN9Scheduler16maybeWakeThreadsEv:
 410              	.LFB30:
  30:src/scheduler.cpp **** void Scheduler::maybeWakeThreads() {
 411              		.loc 2 30 36 is_stmt 1
 412              		.cfi_startproc
 413 0208 130101FE 		addi	sp,sp,-32
 414              		.cfi_def_cfa_offset 32
 415 020c 233C1100 		sd	ra,24(sp)
 416 0210 23388100 		sd	s0,16(sp)
 417 0214 23349100 		sd	s1,8(sp)
 418 0218 23302101 		sd	s2,0(sp)
 419              		.cfi_offset 1, -8
 420              		.cfi_offset 8, -16
 421              		.cfi_offset 9, -24
 422              		.cfi_offset 18, -32
 423 021c 13040102 		addi	s0,sp,32
 424              		.cfi_def_cfa 8, 0
  33:src/scheduler.cpp ****     SleepingThread *st = sleepingThreadQueue.peekFirst();
 425              		.loc 2 33 5
 426              	.LVL39:
 427              	.LBB86:
 428              	.LBB87:
  62:src/../h/list.hpp ****         return head->data;
 429              		.loc 3 62 14 is_stmt 0
 430 0220 97070000 		lla	a5,.LANCHOR0
 430      93870700 
 431 0228 83B40701 		ld	s1,16(a5)
  62:src/../h/list.hpp ****         return head->data;
 432              		.loc 3 62 9
 433 022c 638E0408 		beq	s1,zero,.L32
  63:src/../h/list.hpp ****     }
 434              		.loc 3 63 22
 435 0230 83B40400 		ld	s1,0(s1)
 436              	.LVL40:
 437              	.LBE87:
 438              	.LBE86:
GAS LISTING /tmp/cc3KEY6T.s 			page 13


  34:src/scheduler.cpp ****     if (st) {
 439              		.loc 2 34 5 is_stmt 1
 440 0234 638A0408 		beq	s1,zero,.L32
  35:src/scheduler.cpp ****         st->time_slices_left_--;
 441              		.loc 2 35 9
  35:src/scheduler.cpp ****         st->time_slices_left_--;
 442              		.loc 2 35 13 is_stmt 0
 443 0238 83B78400 		ld	a5,8(s1)
  35:src/scheduler.cpp ****         st->time_slices_left_--;
 444              		.loc 2 35 30
 445 023c 9387F7FF 		addi	a5,a5,-1
 446 0240 23B4F400 		sd	a5,8(s1)
  36:src/scheduler.cpp ****         assert(st->time_slices_left_ >= 0, "Thread should already be out of sleep.");
 447              		.loc 2 36 9 is_stmt 1
  36:src/scheduler.cpp ****         assert(st->time_slices_left_ >= 0, "Thread should already be out of sleep.");
 448              		.loc 2 36 15 is_stmt 0
 449 0244 97050000 		lla	a1,.LC0
 449      93850500 
 450 024c 13051000 		li	a0,1
 451 0250 97000000 		call	_Z6assertbPKc
 451      E7800000 
 452              	.LVL41:
 453 0258 6F000007 		j	.L32
 454              	.LVL42:
 455              	.L34:
 456              	.LBB88:
 457              	.LBB89:
  53:src/../h/list.hpp **** 
 458              		.loc 3 53 22
 459 025c 97070000 		sd	zero,.LANCHOR0+24,a5
 459      23B00700 
 460              	.L29:
 461              	.LVL43:
  56:src/../h/list.hpp ****         return ret;
 462              		.loc 3 56 9
 463 0264 97000000 		call	_ZdlPv
 463      E7800000 
 464              	.LVL44:
 465              	.L28:
 466              	.LBE89:
 467              	.LBE88:
  44:src/scheduler.cpp ****         st->tcb_->setSleeping(false);
 468              		.loc 2 44 9 is_stmt 1
  44:src/scheduler.cpp ****         st->tcb_->setSleeping(false);
 469              		.loc 2 44 13 is_stmt 0
 470 026c 83B70400 		ld	a5,0(s1)
 471              	.LVL45:
 472              	.LBB91:
 473              	.LBB92:
 474              		.loc 4 27 36 is_stmt 1
 475              		.loc 4 27 46 is_stmt 0
 476 0270 23890702 		sb	zero,50(a5)
 477              	.LVL46:
 478              	.LBE92:
 479              	.LBE91:
  45:src/scheduler.cpp ****         readyThreadQueue.addLast(st->tcb_);
 480              		.loc 2 45 9 is_stmt 1
GAS LISTING /tmp/cc3KEY6T.s 			page 14


  45:src/scheduler.cpp ****         readyThreadQueue.addLast(st->tcb_);
 481              		.loc 2 45 33 is_stmt 0
 482 0274 03B90400 		ld	s2,0(s1)
 483              	.LVL47:
 484              	.LBB93:
 485              	.LBB94:
  36:src/../h/list.hpp ****         if (tail)
 486              		.loc 3 36 22
 487 0278 13050001 		li	a0,16
 488 027c 97000000 		call	_Znwm
 488      E7800000 
 489              	.LVL48:
 490              	.LBB95:
 491              	.LBB96:
  15:src/../h/list.hpp ****     };
 492              		.loc 3 15 58
 493 0284 23302501 		sd	s2,0(a0)
 494 0288 23340500 		sd	zero,8(a0)
 495              	.LVL49:
 496              	.LBE96:
 497              	.LBE95:
  37:src/../h/list.hpp ****         {
 498              		.loc 3 37 13
 499 028c 97070000 		lla	a5,.LANCHOR0
 499      93870700 
 500 0294 83B78700 		ld	a5,8(a5)
  37:src/../h/list.hpp ****         {
 501              		.loc 3 37 9
 502 0298 63800706 		beq	a5,zero,.L30
  39:src/../h/list.hpp ****             tail = elem;
 503              		.loc 3 39 13
 504 029c 23B4A700 		sd	a0,8(a5)
  40:src/../h/list.hpp ****         } else
 505              		.loc 3 40 13
 506 02a0 97070000 		sd	a0,.LANCHOR0+8,a5
 506      23B0A700 
 507              	.L31:
 508              	.LVL50:
 509              	.LBE94:
 510              	.LBE93:
  48:src/scheduler.cpp ****         delete st;
 511              		.loc 2 48 9 is_stmt 1
  48:src/scheduler.cpp ****         delete st;
 512              		.loc 2 48 16 is_stmt 0
 513 02a8 13850400 		mv	a0,s1
 514              	.LVL51:
 515 02ac 97000000 		call	_ZdlPv
 515      E7800000 
 516              	.LVL52:
  50:src/scheduler.cpp ****         st = sleepingThreadQueue.peekFirst();
 517              		.loc 2 50 9 is_stmt 1
 518              	.LBB98:
 519              	.LBB99:
  62:src/../h/list.hpp ****         return head->data;
 520              		.loc 3 62 14 is_stmt 0
 521 02b4 97070000 		lla	a5,.LANCHOR0
 521      93870700 
GAS LISTING /tmp/cc3KEY6T.s 			page 15


 522 02bc 83B70701 		ld	a5,16(a5)
  62:src/../h/list.hpp ****         return head->data;
 523              		.loc 3 62 9
 524 02c0 63860704 		beq	a5,zero,.L25
 525              	.LVL53:
  63:src/../h/list.hpp ****     }
 526              		.loc 3 63 22
 527 02c4 83B40700 		ld	s1,0(a5)
 528              	.LVL54:
 529              	.L32:
 530              	.LBE99:
 531              	.LBE98:
  40:src/scheduler.cpp ****     while (st && st->time_slices_left_ == 0) {
 532              		.loc 2 40 5 is_stmt 1
  40:src/scheduler.cpp ****     while (st && st->time_slices_left_ == 0) {
 533              		.loc 2 40 15 is_stmt 0
 534 02c8 63820404 		beq	s1,zero,.L25
  40:src/scheduler.cpp ****     while (st && st->time_slices_left_ == 0) {
 535              		.loc 2 40 22 discriminator 1
 536 02cc 83B78400 		ld	a5,8(s1)
  40:src/scheduler.cpp ****     while (st && st->time_slices_left_ == 0) {
 537              		.loc 2 40 15 discriminator 1
 538 02d0 639E0702 		bne	a5,zero,.L25
  43:src/scheduler.cpp ****         sleepingThreadQueue.removeFirst();
 539              		.loc 2 43 9 is_stmt 1
 540              	.LVL55:
 541              	.LBB100:
 542              	.LBB90:
  49:src/../h/list.hpp **** 
 543              		.loc 3 49 14 is_stmt 0
 544 02d4 97070000 		lla	a5,.LANCHOR0
 544      93870700 
 545 02dc 03B50701 		ld	a0,16(a5)
  49:src/../h/list.hpp **** 
 546              		.loc 3 49 9
 547 02e0 E30605F8 		beq	a0,zero,.L28
 548              	.LVL56:
  52:src/../h/list.hpp ****         if (!head) { tail = 0; }
 549              		.loc 3 52 22
 550 02e4 83378500 		ld	a5,8(a0)
  52:src/../h/list.hpp ****         if (!head) { tail = 0; }
 551              		.loc 3 52 9
 552 02e8 17070000 		sd	a5,.LANCHOR0+16,a4
 552      2330F700 
  53:src/../h/list.hpp **** 
 553              		.loc 3 53 9
 554 02f0 E39A07F6 		bne	a5,zero,.L29
 555 02f4 6FF09FF6 		j	.L34
 556              	.LVL57:
 557              	.L30:
 558              	.LBE90:
 559              	.LBE100:
 560              	.LBB101:
 561              	.LBB97:
  43:src/../h/list.hpp ****         }
 562              		.loc 3 43 13
 563 02f8 97070000 		lla	a5,.LANCHOR0
GAS LISTING /tmp/cc3KEY6T.s 			page 16


 563      93870700 
 564 0300 23B4A700 		sd	a0,8(a5)
 565 0304 23B0A700 		sd	a0,0(a5)
 566 0308 6FF01FFA 		j	.L31
 567              	.LVL58:
 568              	.L25:
 569              	.LBE97:
 570              	.LBE101:
 571              		.loc 2 52 1
 572 030c 83308101 		ld	ra,24(sp)
 573              		.cfi_restore 1
 574 0310 03340101 		ld	s0,16(sp)
 575              		.cfi_restore 8
 576              		.cfi_def_cfa 2, 32
 577 0314 83348100 		ld	s1,8(sp)
 578              		.cfi_restore 9
 579              	.LVL59:
 580 0318 03390100 		ld	s2,0(sp)
 581              		.cfi_restore 18
 582 031c 13010102 		addi	sp,sp,32
 583              		.cfi_def_cfa_offset 0
 584 0320 67800000 		jr	ra
 585              		.cfi_endproc
 586              	.LFE30:
 588              		.align	2
 590              	_GLOBAL__sub_I__ZN9Scheduler16readyThreadQueueE:
 591              	.LFB49:
 592              		.loc 2 52 1 is_stmt 1
 593              		.cfi_startproc
 594 0324 130101FF 		addi	sp,sp,-16
 595              		.cfi_def_cfa_offset 16
 596 0328 23341100 		sd	ra,8(sp)
 597 032c 23308100 		sd	s0,0(sp)
 598              		.cfi_offset 1, -8
 599              		.cfi_offset 8, -16
 600 0330 13040101 		addi	s0,sp,16
 601              		.cfi_def_cfa 8, 0
 602              		.loc 2 52 1 is_stmt 0
 603 0334 B7050100 		li	a1,65536
 604 0338 9385F5FF 		addi	a1,a1,-1
 605 033c 13051000 		li	a0,1
 606 0340 97000000 		call	_Z41__static_initialization_and_destruction_0ii
 606      E7800000 
 607              	.LVL60:
 608 0348 83308100 		ld	ra,8(sp)
 609              		.cfi_restore 1
 610 034c 03340100 		ld	s0,0(sp)
 611              		.cfi_restore 8
 612              		.cfi_def_cfa 2, 16
 613 0350 13010101 		addi	sp,sp,16
 614              		.cfi_def_cfa_offset 0
 615 0354 67800000 		jr	ra
 616              		.cfi_endproc
 617              	.LFE49:
 619              		.section	.init_array,"aw"
 620              		.align	3
 621 0000 00000000 		.dword	_GLOBAL__sub_I__ZN9Scheduler16readyThreadQueueE
GAS LISTING /tmp/cc3KEY6T.s 			page 17


 621      00000000 
 622              		.globl	_ZN9Scheduler19sleepingThreadQueueE
 623              		.globl	_ZN9Scheduler16readyThreadQueueE
 624              		.bss
 625              		.align	3
 626              		.set	.LANCHOR0,. + 0
 629              	_ZN9Scheduler16readyThreadQueueE:
 630 0000 00000000 		.zero	16
 630      00000000 
 630      00000000 
 630      00000000 
 633              	_ZN9Scheduler19sleepingThreadQueueE:
 634 0010 00000000 		.zero	16
 634      00000000 
 634      00000000 
 634      00000000 
 635              		.section	.rodata.str1.8,"aMS",@progbits,1
 636              		.align	3
 637              	.LC0:
 638 0000 54687265 		.string	"Thread should already be out of sleep."
 638      61642073 
 638      686F756C 
 638      6420616C 
 638      72656164 
 639              		.text
 640              	.Letext0:
 641              		.file 5 "src/../h/../lib/hw.h"
 642              		.file 6 "src/../h/print.hpp"
GAS LISTING /tmp/cc3KEY6T.s 			page 18

