GAS LISTING /tmp/cccZkVe1.s 			page 1


   1              		.file	"tcb.cpp"
   2              		.option nopic
   3              		.option norelax
   4              		.attribute arch, "rv64i2p0_m2p0_a2p0"
   5              		.attribute unaligned_access, 0
   6              		.attribute stack_align, 16
   7              		.text
   8              	.Ltext0:
   9              		.align	2
  10              		.globl	_ZN3TCB12createThreadEPFvPvES0_
  12              	_ZN3TCB12createThreadEPFvPvES0_:
  13              	.LFB36:
  14              		.file 1 "src/tcb.cpp"
   1:src/tcb.cpp   **** #include "../h/tcb.hpp"
   2:src/tcb.cpp   **** #include "../h/riscv.hpp"
   3:src/tcb.cpp   **** #include "../h/print.hpp"
   4:src/tcb.cpp   **** 
   5:src/tcb.cpp   **** TCB *TCB::running = nullptr;
   6:src/tcb.cpp   **** 
   7:src/tcb.cpp   **** uint64 TCB::timeSliceCounter = 0;
   8:src/tcb.cpp   **** 
   9:src/tcb.cpp   **** TCB *TCB::createThread(Body body, void* arg)
  10:src/tcb.cpp   **** {
  15              		.loc 1 10 1
  16              		.cfi_startproc
  17              		.cfi_personality 0x9b,DW.ref.__gxx_personality_v0
  18              		.cfi_lsda 0x1b,.LLSDA36
  19              	.LVL0:
  20 0000 130101FD 		addi	sp,sp,-48
  21              		.cfi_def_cfa_offset 48
  22 0004 23341102 		sd	ra,40(sp)
  23 0008 23308102 		sd	s0,32(sp)
  24 000c 233C9100 		sd	s1,24(sp)
  25 0010 23382101 		sd	s2,16(sp)
  26 0014 23343101 		sd	s3,8(sp)
  27              		.cfi_offset 1, -8
  28              		.cfi_offset 8, -16
  29              		.cfi_offset 9, -24
  30              		.cfi_offset 18, -32
  31              		.cfi_offset 19, -40
  32 0018 13040103 		addi	s0,sp,48
  33              		.cfi_def_cfa 8, 0
  34 001c 13090500 		mv	s2,a0
  35 0020 93890500 		mv	s3,a1
  11:src/tcb.cpp   ****     return new TCB(body, arg, TIME_SLICE);
  36              		.loc 1 11 5
  37              		.loc 1 11 41 is_stmt 0
  38 0024 13058003 		li	a0,56
  39              	.LVL1:
  40              	.LEHB0:
  41 0028 97000000 		call	_Znwm
  41      E7800000 
  42              	.LVL2:
  43              	.LEHE0:
  44 0030 93040500 		mv	s1,a0
  45              	.LVL3:
  46              	.LBB11:
GAS LISTING /tmp/cccZkVe1.s 			page 2


  47              	.LBB12:
  48              		.file 2 "src/../h/tcb.hpp"
   1:src/../h/tcb.hpp **** //
   2:src/../h/tcb.hpp **** // Created by marko on 20.4.22..
   3:src/../h/tcb.hpp **** //
   4:src/../h/tcb.hpp **** 
   5:src/../h/tcb.hpp **** #ifndef OS1_VEZBE07_RISCV_CONTEXT_SWITCH_2_INTERRUPT_TCB_HPP
   6:src/../h/tcb.hpp **** #define OS1_VEZBE07_RISCV_CONTEXT_SWITCH_2_INTERRUPT_TCB_HPP
   7:src/../h/tcb.hpp **** 
   8:src/../h/tcb.hpp **** #include "../lib/hw.h"
   9:src/../h/tcb.hpp **** #include "scheduler.hpp"
  10:src/../h/tcb.hpp **** 
  11:src/../h/tcb.hpp **** // Thread Control Block
  12:src/../h/tcb.hpp **** class TCB
  13:src/../h/tcb.hpp **** {
  14:src/../h/tcb.hpp **** public:
  15:src/../h/tcb.hpp ****     ~TCB() { delete[] stack; }
  16:src/../h/tcb.hpp **** 
  17:src/../h/tcb.hpp ****     bool isFinished() const { return finished_; }
  18:src/../h/tcb.hpp **** 
  19:src/../h/tcb.hpp ****     void setFinished(bool value) { finished_ = value; }
  20:src/../h/tcb.hpp **** 
  21:src/../h/tcb.hpp ****     void block() { blocked_ = true; }
  22:src/../h/tcb.hpp **** 
  23:src/../h/tcb.hpp ****     void unblock() { blocked_ = false; }
  24:src/../h/tcb.hpp **** 
  25:src/../h/tcb.hpp ****     bool isBlocked() { return blocked_; }
  26:src/../h/tcb.hpp **** 
  27:src/../h/tcb.hpp ****     uint64 getTimeSlice() const { return timeSlice; }
  28:src/../h/tcb.hpp **** 
  29:src/../h/tcb.hpp ****     using Body = void (*)(void*);
  30:src/../h/tcb.hpp **** 
  31:src/../h/tcb.hpp ****     static TCB *createThread(Body body, void* arg = nullptr);
  32:src/../h/tcb.hpp **** 
  33:src/../h/tcb.hpp ****     // Let's scheduler decide the next process.
  34:src/../h/tcb.hpp ****     static void yield();
  35:src/../h/tcb.hpp **** 
  36:src/../h/tcb.hpp ****     static TCB *running;
  37:src/../h/tcb.hpp **** 
  38:src/../h/tcb.hpp **** private:
  39:src/../h/tcb.hpp ****     TCB(Body body, void* arg, uint64 timeSlice) :
  40:src/../h/tcb.hpp ****             body(body),
  41:src/../h/tcb.hpp ****             arg_(arg),
  42:src/../h/tcb.hpp ****             stack(body != nullptr ? new uint64[STACK_SIZE] : nullptr),
  43:src/../h/tcb.hpp ****             context({(uint64) &threadWrapper,
  44:src/../h/tcb.hpp ****                      stack != nullptr ? (uint64) &stack[STACK_SIZE] : 0
  45:src/../h/tcb.hpp ****                     }),
  46:src/../h/tcb.hpp ****             timeSlice(timeSlice),
  47:src/../h/tcb.hpp ****             finished_(false),
  48:src/../h/tcb.hpp ****             blocked_(false)
  49              		.loc 2 48 27
  50 0034 23302501 		sd	s2,0(a0)
  51 0038 23343501 		sd	s3,8(a0)
  42:src/../h/tcb.hpp ****             context({(uint64) &threadWrapper,
  52              		.loc 2 42 35
  53 003c 630A0900 		beq	s2,zero,.L6
  42:src/../h/tcb.hpp ****             context({(uint64) &threadWrapper,
GAS LISTING /tmp/cccZkVe1.s 			page 3


  54              		.loc 2 42 58
  55 0040 37250000 		li	a0,8192
  56              	.LEHB1:
  57 0044 97000000 		call	_Znam
  57      E7800000 
  58              	.LVL4:
  59 004c 6F008000 		j	.L2
  60              	.L6:
  42:src/../h/tcb.hpp ****             context({(uint64) &threadWrapper,
  61              		.loc 2 42 35
  62 0050 13050000 		li	a0,0
  63              	.L2:
  64              		.loc 2 48 27
  65 0054 23B8A400 		sd	a0,16(s1)
  66 0058 97070000 		lla	a5,_ZN3TCB13threadWrapperEv
  66      93870700 
  67 0060 23BCF400 		sd	a5,24(s1)
  44:src/../h/tcb.hpp ****                     }),
  68              		.loc 2 44 39
  69 0064 630A0502 		beq	a0,zero,.L7
  44:src/../h/tcb.hpp ****                     }),
  70              		.loc 2 44 50
  71 0068 B7270000 		li	a5,8192
  72 006c 3305F500 		add	a0,a0,a5
  73              	.L3:
  74              		.loc 2 48 27
  75 0070 23B0A402 		sd	a0,32(s1)
  76 0074 93072000 		li	a5,2
  77 0078 23B4F402 		sd	a5,40(s1)
  78 007c 23880402 		sb	zero,48(s1)
  79 0080 A3880402 		sb	zero,49(s1)
  49:src/../h/tcb.hpp ****     {
  50:src/../h/tcb.hpp ****         if (body != nullptr) { Scheduler::put(this); }
  80              		.loc 2 50 9 is_stmt 1
  81 0084 630C0902 		beq	s2,zero,.L1
  82              		.loc 2 50 32
  83              		.loc 2 50 46 is_stmt 0
  84 0088 13850400 		mv	a0,s1
  85 008c 97000000 		call	_ZN9Scheduler3putEP3TCB
  85      E7800000 
  86              	.LVL5:
  87              	.LEHE1:
  88 0094 6F008002 		j	.L1
  89              	.L7:
  44:src/../h/tcb.hpp ****                     }),
  90              		.loc 2 44 39
  91 0098 13050000 		li	a0,0
  92 009c 6FF05FFD 		j	.L3
  93              	.L8:
  94 00a0 13090500 		mv	s2,a0
  95              	.LVL6:
  96              	.LBE12:
  97              	.LBE11:
  98              		.loc 1 11 41
  99 00a4 13850400 		mv	a0,s1
 100 00a8 97000000 		call	_ZdlPv
 100      E7800000 
GAS LISTING /tmp/cccZkVe1.s 			page 4


 101              	.LVL7:
 102 00b0 13050900 		mv	a0,s2
 103              	.LEHB2:
 104 00b4 97000000 		call	_Unwind_Resume
 104      E7800000 
 105              	.LVL8:
 106              	.LEHE2:
 107              	.L1:
  12:src/tcb.cpp   **** }
 108              		.loc 1 12 1
 109 00bc 13850400 		mv	a0,s1
 110 00c0 83308102 		ld	ra,40(sp)
 111              		.cfi_restore 1
 112 00c4 03340102 		ld	s0,32(sp)
 113              		.cfi_restore 8
 114              		.cfi_def_cfa 2, 48
 115 00c8 83348101 		ld	s1,24(sp)
 116              		.cfi_restore 9
 117              	.LVL9:
 118 00cc 03390101 		ld	s2,16(sp)
 119              		.cfi_restore 18
 120              	.LVL10:
 121 00d0 83398100 		ld	s3,8(sp)
 122              		.cfi_restore 19
 123              	.LVL11:
 124 00d4 13010103 		addi	sp,sp,48
 125              		.cfi_def_cfa_offset 0
 126 00d8 67800000 		jr	ra
 127              		.cfi_endproc
 128              	.LFE36:
 129              		.globl	__gxx_personality_v0
 130              		.section	.gcc_except_table,"aw",@progbits
 131              	.LLSDA36:
 132 0000 FF       		.byte	0xff
 133 0001 FF       		.byte	0xff
 134 0002 03       		.byte	0x3
 135 0003 27       		.byte	0x27
 136 0004 00000000 		.4byte	.LEHB0-.LFB36
 137 0008 00000000 		.4byte	.LEHE0-.LEHB0
 138 000c 00000000 		.4byte	0
 139 0010 00       		.byte	0
 140 0011 00000000 		.4byte	.LEHB1-.LFB36
 141 0015 00000000 		.4byte	.LEHE1-.LEHB1
 142 0019 00000000 		.4byte	.L8-.LFB36
 143 001d 00       		.byte	0
 144 001e 00000000 		.4byte	.LEHB2-.LFB36
 145 0022 00000000 		.4byte	.LEHE2-.LEHB2
 146 0026 00000000 		.4byte	0
 147 002a 00       		.byte	0
 148              		.text
 150              		.align	2
 151              		.globl	_ZN3TCB8dispatchEv
 153              	_ZN3TCB8dispatchEv:
 154              	.LFB38:
  13:src/tcb.cpp   **** 
  14:src/tcb.cpp   **** // Let's scheduler decide the next process.
  15:src/tcb.cpp   **** void TCB::yield()
GAS LISTING /tmp/cccZkVe1.s 			page 5


  16:src/tcb.cpp   **** {
  17:src/tcb.cpp   ****     // __asm__ volatile ("ecall");
  18:src/tcb.cpp   ****     dispatch();
  19:src/tcb.cpp   **** }
  20:src/tcb.cpp   **** 
  21:src/tcb.cpp   **** // Releases the old process and starts a new one.
  22:src/tcb.cpp   **** void TCB::dispatch()
  23:src/tcb.cpp   **** {
 155              		.loc 1 23 1 is_stmt 1
 156              		.cfi_startproc
 157 00dc 130101FE 		addi	sp,sp,-32
 158              		.cfi_def_cfa_offset 32
 159 00e0 233C1100 		sd	ra,24(sp)
 160 00e4 23388100 		sd	s0,16(sp)
 161 00e8 23349100 		sd	s1,8(sp)
 162              		.cfi_offset 1, -8
 163              		.cfi_offset 8, -16
 164              		.cfi_offset 9, -24
 165 00ec 13040102 		addi	s0,sp,32
 166              		.cfi_def_cfa 8, 0
  24:src/tcb.cpp   ****     // Put the process back into the queue if it isn't finished and if it isn't
  25:src/tcb.cpp   ****     // blocked.
  26:src/tcb.cpp   ****     TCB *old = running;
 167              		.loc 1 26 5
 168              		.loc 1 26 10 is_stmt 0
 169 00f0 97070000 		lla	a5,_ZN3TCB7runningE
 169      93870700 
 170 00f8 83B40700 		ld	s1,0(a5)
 171              	.LVL12:
  27:src/tcb.cpp   ****     // TODO: Should we delete the old thread?
  28:src/tcb.cpp   ****     if (!old->isFinished() && !old->isBlocked()) { Scheduler::put(old); }
 172              		.loc 1 28 5 is_stmt 1
 173              	.LBB13:
 174              	.LBB14:
  17:src/../h/tcb.hpp **** 
 175              		.loc 2 17 31
  17:src/../h/tcb.hpp **** 
 176              		.loc 2 17 38 is_stmt 0
 177 00fc 83C70403 		lbu	a5,48(s1)
 178              	.LVL13:
 179              	.LBE14:
 180              	.LBE13:
 181              		.loc 1 28 28
 182 0100 63960700 		bne	a5,zero,.L11
 183              	.LVL14:
 184              	.LBB15:
 185              	.LBB16:
  25:src/../h/tcb.hpp **** 
 186              		.loc 2 25 24 is_stmt 1
  25:src/../h/tcb.hpp **** 
 187              		.loc 2 25 31 is_stmt 0
 188 0104 83C71403 		lbu	a5,49(s1)
 189              	.LVL15:
 190              	.LBE16:
 191              	.LBE15:
 192              		.loc 1 28 28
 193 0108 638C0702 		beq	a5,zero,.L13
GAS LISTING /tmp/cccZkVe1.s 			page 6


 194              	.L11:
  29:src/tcb.cpp   **** 
  30:src/tcb.cpp   ****     running = Scheduler::get();
 195              		.loc 1 30 5 is_stmt 1
 196              		.loc 1 30 29 is_stmt 0
 197 010c 97000000 		call	_ZN9Scheduler3getEv
 197      E7800000 
 198              	.LVL16:
 199              		.loc 1 30 13
 200 0114 97070000 		sd	a0,_ZN3TCB7runningE,a5
 200      23B0A700 
  31:src/tcb.cpp   **** 
  32:src/tcb.cpp   ****     TCB::contextSwitch(&old->context, &running->context);
 201              		.loc 1 32 5 is_stmt 1
 202              		.loc 1 32 23 is_stmt 0
 203 011c 93058501 		addi	a1,a0,24
 204 0120 13858401 		addi	a0,s1,24
 205 0124 97000000 		call	_ZN3TCB13contextSwitchEPNS_7ContextES1_
 205      E7800000 
 206              	.LVL17:
  33:src/tcb.cpp   **** }
 207              		.loc 1 33 1
 208 012c 83308101 		ld	ra,24(sp)
 209              		.cfi_remember_state
 210              		.cfi_restore 1
 211 0130 03340101 		ld	s0,16(sp)
 212              		.cfi_restore 8
 213              		.cfi_def_cfa 2, 32
 214 0134 83348100 		ld	s1,8(sp)
 215              		.cfi_restore 9
 216              	.LVL18:
 217 0138 13010102 		addi	sp,sp,32
 218              		.cfi_def_cfa_offset 0
 219 013c 67800000 		jr	ra
 220              	.LVL19:
 221              	.L13:
 222              		.cfi_restore_state
  28:src/tcb.cpp   **** 
 223              		.loc 1 28 52 is_stmt 1
  28:src/tcb.cpp   **** 
 224              		.loc 1 28 66 is_stmt 0
 225 0140 13850400 		mv	a0,s1
 226 0144 97000000 		call	_ZN9Scheduler3putEP3TCB
 226      E7800000 
 227              	.LVL20:
 228 014c 6FF01FFC 		j	.L11
 229              		.cfi_endproc
 230              	.LFE38:
 232              		.align	2
 233              		.globl	_ZN3TCB5yieldEv
 235              	_ZN3TCB5yieldEv:
 236              	.LFB37:
  16:src/tcb.cpp   ****     // __asm__ volatile ("ecall");
 237              		.loc 1 16 1 is_stmt 1
 238              		.cfi_startproc
 239 0150 130101FF 		addi	sp,sp,-16
 240              		.cfi_def_cfa_offset 16
GAS LISTING /tmp/cccZkVe1.s 			page 7


 241 0154 23341100 		sd	ra,8(sp)
 242 0158 23308100 		sd	s0,0(sp)
 243              		.cfi_offset 1, -8
 244              		.cfi_offset 8, -16
 245 015c 13040101 		addi	s0,sp,16
 246              		.cfi_def_cfa 8, 0
  18:src/tcb.cpp   **** }
 247              		.loc 1 18 5
  18:src/tcb.cpp   **** }
 248              		.loc 1 18 13 is_stmt 0
 249 0160 97000000 		call	_ZN3TCB8dispatchEv
 249      E7800000 
 250              	.LVL21:
  19:src/tcb.cpp   **** 
 251              		.loc 1 19 1
 252 0168 83308100 		ld	ra,8(sp)
 253              		.cfi_restore 1
 254 016c 03340100 		ld	s0,0(sp)
 255              		.cfi_restore 8
 256              		.cfi_def_cfa 2, 16
 257 0170 13010101 		addi	sp,sp,16
 258              		.cfi_def_cfa_offset 0
 259 0174 67800000 		jr	ra
 260              		.cfi_endproc
 261              	.LFE37:
 263              		.align	2
 264              		.globl	_ZN3TCB13threadWrapperEv
 266              	_ZN3TCB13threadWrapperEv:
 267              	.LFB39:
  34:src/tcb.cpp   **** 
  35:src/tcb.cpp   **** // Actual function being executed is the thread wrapper.
  36:src/tcb.cpp   **** // The values
  37:src/tcb.cpp   **** void TCB::threadWrapper()
  38:src/tcb.cpp   **** {
 268              		.loc 1 38 1 is_stmt 1
 269              		.cfi_startproc
 270 0178 130101FE 		addi	sp,sp,-32
 271              		.cfi_def_cfa_offset 32
 272 017c 233C1100 		sd	ra,24(sp)
 273 0180 23388100 		sd	s0,16(sp)
 274 0184 23349100 		sd	s1,8(sp)
 275              		.cfi_offset 1, -8
 276              		.cfi_offset 8, -16
 277              		.cfi_offset 9, -24
 278 0188 13040102 		addi	s0,sp,32
 279              		.cfi_def_cfa 8, 0
  39:src/tcb.cpp   ****     Riscv::popSppSpie();
 280              		.loc 1 39 5
 281              		.loc 1 39 22 is_stmt 0
 282 018c 97000000 		call	_ZN5Riscv10popSppSpieEv
 282      E7800000 
 283              	.LVL22:
  40:src/tcb.cpp   ****     running->body(running->arg_);
 284              		.loc 1 40 5 is_stmt 1
 285              		.loc 1 40 14 is_stmt 0
 286 0194 97040000 		lla	s1,_ZN3TCB7runningE
 286      93840400 
GAS LISTING /tmp/cccZkVe1.s 			page 8


 287 019c 83B70400 		ld	a5,0(s1)
 288 01a0 03B70700 		ld	a4,0(a5)
 289              		.loc 1 40 18
 290 01a4 03B58700 		ld	a0,8(a5)
 291 01a8 E7000700 		jalr	a4
 292              	.LVL23:
  41:src/tcb.cpp   ****     running->setFinished(true);
 293              		.loc 1 41 5 is_stmt 1
 294              		.loc 1 41 25 is_stmt 0
 295 01ac 83B70400 		ld	a5,0(s1)
 296              	.LVL24:
 297              	.LBB17:
 298              	.LBB18:
  19:src/../h/tcb.hpp **** 
 299              		.loc 2 19 36 is_stmt 1
  19:src/../h/tcb.hpp **** 
 300              		.loc 2 19 46 is_stmt 0
 301 01b0 13071000 		li	a4,1
 302 01b4 2388E702 		sb	a4,48(a5)
 303              	.LVL25:
 304              	.LBE18:
 305              	.LBE17:
  42:src/tcb.cpp   ****     TCB::yield();
 306              		.loc 1 42 5 is_stmt 1
 307              		.loc 1 42 15 is_stmt 0
 308 01b8 97000000 		call	_ZN3TCB5yieldEv
 308      E7800000 
 309              	.LVL26:
  43:src/tcb.cpp   **** }
 310              		.loc 1 43 1
 311 01c0 83308101 		ld	ra,24(sp)
 312              		.cfi_restore 1
 313 01c4 03340101 		ld	s0,16(sp)
 314              		.cfi_restore 8
 315              		.cfi_def_cfa 2, 32
 316 01c8 83348100 		ld	s1,8(sp)
 317              		.cfi_restore 9
 318 01cc 13010102 		addi	sp,sp,32
 319              		.cfi_def_cfa_offset 0
 320 01d0 67800000 		jr	ra
 321              		.cfi_endproc
 322              	.LFE39:
 324              		.align	2
 325              		.globl	_ZN3TCB4exitEv
 327              	_ZN3TCB4exitEv:
 328              	.LFB40:
  44:src/tcb.cpp   **** 
  45:src/tcb.cpp   **** void TCB::exit() {
 329              		.loc 1 45 18 is_stmt 1
 330              		.cfi_startproc
 331 01d4 130101FE 		addi	sp,sp,-32
 332              		.cfi_def_cfa_offset 32
 333 01d8 233C1100 		sd	ra,24(sp)
 334 01dc 23388100 		sd	s0,16(sp)
 335 01e0 23349100 		sd	s1,8(sp)
 336 01e4 23302101 		sd	s2,0(sp)
 337              		.cfi_offset 1, -8
GAS LISTING /tmp/cccZkVe1.s 			page 9


 338              		.cfi_offset 8, -16
 339              		.cfi_offset 9, -24
 340              		.cfi_offset 18, -32
 341 01e8 13040102 		addi	s0,sp,32
 342              		.cfi_def_cfa 8, 0
  46:src/tcb.cpp   ****     // Switch context to the next thread.
  47:src/tcb.cpp   ****     TCB *old = running;
 343              		.loc 1 47 5
 344              		.loc 1 47 10 is_stmt 0
 345 01ec 97040000 		lla	s1,_ZN3TCB7runningE
 345      93840400 
 346 01f4 03B90400 		ld	s2,0(s1)
 347              	.LVL27:
  48:src/tcb.cpp   ****     running = Scheduler::get();
 348              		.loc 1 48 5 is_stmt 1
 349              		.loc 1 48 29 is_stmt 0
 350 01f8 97000000 		call	_ZN9Scheduler3getEv
 350      E7800000 
 351              	.LVL28:
 352              		.loc 1 48 13
 353 0200 23B0A400 		sd	a0,0(s1)
  49:src/tcb.cpp   ****     TCB::contextSwitch(&old->context, &running->context);
 354              		.loc 1 49 5 is_stmt 1
 355              		.loc 1 49 23 is_stmt 0
 356 0204 93058501 		addi	a1,a0,24
 357 0208 13058901 		addi	a0,s2,24
 358 020c 97000000 		call	_ZN3TCB13contextSwitchEPNS_7ContextES1_
 358      E7800000 
 359              	.LVL29:
  50:src/tcb.cpp   ****     // delete old; ?? WE SHOULD DELETE THE OLD THREAD? RIGHT?!
  51:src/tcb.cpp   **** }...
 360              		.loc 1 51 1
 361 0214 83308101 		ld	ra,24(sp)
 362              		.cfi_restore 1
 363 0218 03340101 		ld	s0,16(sp)
 364              		.cfi_restore 8
 365              		.cfi_def_cfa 2, 32
 366 021c 83348100 		ld	s1,8(sp)
 367              		.cfi_restore 9
 368 0220 03390100 		ld	s2,0(sp)
 369              		.cfi_restore 18
 370              	.LVL30:
 371 0224 13010102 		addi	sp,sp,32
 372              		.cfi_def_cfa_offset 0
 373 0228 67800000 		jr	ra
 374              		.cfi_endproc
 375              	.LFE40:
 377              		.globl	_ZN3TCB16timeSliceCounterE
 378              		.globl	_ZN3TCB7runningE
 379              		.section	.sbss,"aw",@nobits
 380              		.align	3
 383              	_ZN3TCB16timeSliceCounterE:
 384 0000 00000000 		.zero	8
 384      00000000 
 387              	_ZN3TCB7runningE:
 388 0008 00000000 		.zero	8
 388      00000000 
GAS LISTING /tmp/cccZkVe1.s 			page 10


 389              		.text
 390              	.Letext0:
 391              		.file 3 "src/../h/../lib/hw.h"
 392              		.file 4 "src/../h/scheduler.hpp"
 393              		.file 5 "src/../h/riscv.hpp"
 2678              		.align	3
 2681              	DW.ref.__gxx_personality_v0:
 2682 0000 00000000 		.dword	__gxx_personality_v0
 2682      00000000 
 2683              		.ident	"GCC: () 8.3.0"
GAS LISTING /tmp/cccZkVe1.s 			page 11


DEFINED SYMBOLS
                            *ABS*:0000000000000000 tcb.cpp
     /tmp/cccZkVe1.s:12     .text:0000000000000000 _ZN3TCB12createThreadEPFvPvES0_
     /tmp/cccZkVe1.s:16     .text:0000000000000000 .L0 
     /tmp/cccZkVe1.s:2681   .sdata.DW.ref.__gxx_personality_v0:0000000000000000 DW.ref.__gxx_personality_v0
     /tmp/cccZkVe1.s:20     .text:0000000000000000 .L0 
     /tmp/cccZkVe1.s:21     .text:0000000000000004 .L0 
     /tmp/cccZkVe1.s:27     .text:0000000000000018 .L0 
     /tmp/cccZkVe1.s:28     .text:0000000000000018 .L0 
     /tmp/cccZkVe1.s:29     .text:0000000000000018 .L0 
     /tmp/cccZkVe1.s:30     .text:0000000000000018 .L0 
     /tmp/cccZkVe1.s:31     .text:0000000000000018 .L0 
     /tmp/cccZkVe1.s:33     .text:000000000000001c .L0 
     /tmp/cccZkVe1.s:37     .text:0000000000000024 .L0 
     /tmp/cccZkVe1.s:38     .text:0000000000000024 .L0 
     /tmp/cccZkVe1.s:50     .text:0000000000000034 .L0 
     /tmp/cccZkVe1.s:53     .text:000000000000003c .L0 
     /tmp/cccZkVe1.s:55     .text:0000000000000040 .L0 
     /tmp/cccZkVe1.s:62     .text:0000000000000050 .L0 
     /tmp/cccZkVe1.s:65     .text:0000000000000054 .L0 
     /tmp/cccZkVe1.s:266    .text:0000000000000178 _ZN3TCB13threadWrapperEv
     /tmp/cccZkVe1.s:69     .text:0000000000000064 .L0 
     /tmp/cccZkVe1.s:71     .text:0000000000000068 .L0 
     /tmp/cccZkVe1.s:75     .text:0000000000000070 .L0 
     /tmp/cccZkVe1.s:81     .text:0000000000000084 .L0 
     /tmp/cccZkVe1.s:83     .text:0000000000000088 .L0 
     /tmp/cccZkVe1.s:84     .text:0000000000000088 .L0 
     /tmp/cccZkVe1.s:91     .text:0000000000000098 .L0 
     /tmp/cccZkVe1.s:99     .text:00000000000000a4 .L0 
     /tmp/cccZkVe1.s:109    .text:00000000000000bc .L0 
     /tmp/cccZkVe1.s:111    .text:00000000000000c4 .L0 
     /tmp/cccZkVe1.s:113    .text:00000000000000c8 .L0 
     /tmp/cccZkVe1.s:114    .text:00000000000000c8 .L0 
     /tmp/cccZkVe1.s:116    .text:00000000000000cc .L0 
     /tmp/cccZkVe1.s:119    .text:00000000000000d0 .L0 
     /tmp/cccZkVe1.s:122    .text:00000000000000d4 .L0 
     /tmp/cccZkVe1.s:125    .text:00000000000000d8 .L0 
     /tmp/cccZkVe1.s:127    .text:00000000000000dc .L0 
     /tmp/cccZkVe1.s:153    .text:00000000000000dc _ZN3TCB8dispatchEv
     /tmp/cccZkVe1.s:156    .text:00000000000000dc .L0 
     /tmp/cccZkVe1.s:157    .text:00000000000000dc .L0 
     /tmp/cccZkVe1.s:158    .text:00000000000000e0 .L0 
     /tmp/cccZkVe1.s:162    .text:00000000000000ec .L0 
     /tmp/cccZkVe1.s:163    .text:00000000000000ec .L0 
     /tmp/cccZkVe1.s:164    .text:00000000000000ec .L0 
     /tmp/cccZkVe1.s:166    .text:00000000000000f0 .L0 
     /tmp/cccZkVe1.s:168    .text:00000000000000f0 .L0 
     /tmp/cccZkVe1.s:387    .sbss:0000000000000008 _ZN3TCB7runningE
     /tmp/cccZkVe1.s:169    .text:00000000000000f0 .L0 
     /tmp/cccZkVe1.s:175    .text:00000000000000fc .L0 
     /tmp/cccZkVe1.s:176    .text:00000000000000fc .L0 
     /tmp/cccZkVe1.s:177    .text:00000000000000fc .L0 
     /tmp/cccZkVe1.s:182    .text:0000000000000100 .L0 
     /tmp/cccZkVe1.s:187    .text:0000000000000104 .L0 
     /tmp/cccZkVe1.s:188    .text:0000000000000104 .L0 
     /tmp/cccZkVe1.s:193    .text:0000000000000108 .L0 
     /tmp/cccZkVe1.s:196    .text:000000000000010c .L0 
GAS LISTING /tmp/cccZkVe1.s 			page 12


     /tmp/cccZkVe1.s:197    .text:000000000000010c .L0 
     /tmp/cccZkVe1.s:200    .text:0000000000000114 .L0 
     /tmp/cccZkVe1.s:202    .text:000000000000011c .L0 
     /tmp/cccZkVe1.s:203    .text:000000000000011c .L0 
     /tmp/cccZkVe1.s:208    .text:000000000000012c .L0 
     /tmp/cccZkVe1.s:209    .text:0000000000000130 .L0 
     /tmp/cccZkVe1.s:210    .text:0000000000000130 .L0 
     /tmp/cccZkVe1.s:212    .text:0000000000000134 .L0 
     /tmp/cccZkVe1.s:213    .text:0000000000000134 .L0 
     /tmp/cccZkVe1.s:215    .text:0000000000000138 .L0 
     /tmp/cccZkVe1.s:218    .text:000000000000013c .L0 
     /tmp/cccZkVe1.s:222    .text:0000000000000140 .L0 
     /tmp/cccZkVe1.s:224    .text:0000000000000140 .L0 
     /tmp/cccZkVe1.s:225    .text:0000000000000140 .L0 
     /tmp/cccZkVe1.s:229    .text:0000000000000150 .L0 
     /tmp/cccZkVe1.s:235    .text:0000000000000150 _ZN3TCB5yieldEv
     /tmp/cccZkVe1.s:238    .text:0000000000000150 .L0 
     /tmp/cccZkVe1.s:239    .text:0000000000000150 .L0 
     /tmp/cccZkVe1.s:240    .text:0000000000000154 .L0 
     /tmp/cccZkVe1.s:243    .text:000000000000015c .L0 
     /tmp/cccZkVe1.s:244    .text:000000000000015c .L0 
     /tmp/cccZkVe1.s:246    .text:0000000000000160 .L0 
     /tmp/cccZkVe1.s:248    .text:0000000000000160 .L0 
     /tmp/cccZkVe1.s:249    .text:0000000000000160 .L0 
     /tmp/cccZkVe1.s:252    .text:0000000000000168 .L0 
     /tmp/cccZkVe1.s:253    .text:000000000000016c .L0 
     /tmp/cccZkVe1.s:255    .text:0000000000000170 .L0 
     /tmp/cccZkVe1.s:256    .text:0000000000000170 .L0 
     /tmp/cccZkVe1.s:258    .text:0000000000000174 .L0 
     /tmp/cccZkVe1.s:260    .text:0000000000000178 .L0 
     /tmp/cccZkVe1.s:269    .text:0000000000000178 .L0 
     /tmp/cccZkVe1.s:270    .text:0000000000000178 .L0 
     /tmp/cccZkVe1.s:271    .text:000000000000017c .L0 
     /tmp/cccZkVe1.s:275    .text:0000000000000188 .L0 
     /tmp/cccZkVe1.s:276    .text:0000000000000188 .L0 
     /tmp/cccZkVe1.s:277    .text:0000000000000188 .L0 
     /tmp/cccZkVe1.s:279    .text:000000000000018c .L0 
     /tmp/cccZkVe1.s:281    .text:000000000000018c .L0 
     /tmp/cccZkVe1.s:282    .text:000000000000018c .L0 
     /tmp/cccZkVe1.s:285    .text:0000000000000194 .L0 
     /tmp/cccZkVe1.s:286    .text:0000000000000194 .L0 
     /tmp/cccZkVe1.s:290    .text:00000000000001a4 .L0 
     /tmp/cccZkVe1.s:294    .text:00000000000001ac .L0 
     /tmp/cccZkVe1.s:295    .text:00000000000001ac .L0 
     /tmp/cccZkVe1.s:300    .text:00000000000001b0 .L0 
     /tmp/cccZkVe1.s:301    .text:00000000000001b0 .L0 
     /tmp/cccZkVe1.s:307    .text:00000000000001b8 .L0 
     /tmp/cccZkVe1.s:308    .text:00000000000001b8 .L0 
     /tmp/cccZkVe1.s:311    .text:00000000000001c0 .L0 
     /tmp/cccZkVe1.s:312    .text:00000000000001c4 .L0 
     /tmp/cccZkVe1.s:314    .text:00000000000001c8 .L0 
     /tmp/cccZkVe1.s:315    .text:00000000000001c8 .L0 
     /tmp/cccZkVe1.s:317    .text:00000000000001cc .L0 
     /tmp/cccZkVe1.s:319    .text:00000000000001d0 .L0 
     /tmp/cccZkVe1.s:321    .text:00000000000001d4 .L0 
     /tmp/cccZkVe1.s:327    .text:00000000000001d4 _ZN3TCB4exitEv
     /tmp/cccZkVe1.s:330    .text:00000000000001d4 .L0 
GAS LISTING /tmp/cccZkVe1.s 			page 13


     /tmp/cccZkVe1.s:331    .text:00000000000001d4 .L0 
     /tmp/cccZkVe1.s:332    .text:00000000000001d8 .L0 
     /tmp/cccZkVe1.s:337    .text:00000000000001e8 .L0 
     /tmp/cccZkVe1.s:338    .text:00000000000001e8 .L0 
     /tmp/cccZkVe1.s:339    .text:00000000000001e8 .L0 
     /tmp/cccZkVe1.s:340    .text:00000000000001e8 .L0 
     /tmp/cccZkVe1.s:342    .text:00000000000001ec .L0 
     /tmp/cccZkVe1.s:344    .text:00000000000001ec .L0 
     /tmp/cccZkVe1.s:345    .text:00000000000001ec .L0 
     /tmp/cccZkVe1.s:349    .text:00000000000001f8 .L0 
     /tmp/cccZkVe1.s:350    .text:00000000000001f8 .L0 
     /tmp/cccZkVe1.s:353    .text:0000000000000200 .L0 
     /tmp/cccZkVe1.s:355    .text:0000000000000204 .L0 
     /tmp/cccZkVe1.s:356    .text:0000000000000204 .L0 
     /tmp/cccZkVe1.s:361    .text:0000000000000214 .L0 
     /tmp/cccZkVe1.s:362    .text:0000000000000218 .L0 
     /tmp/cccZkVe1.s:364    .text:000000000000021c .L0 
     /tmp/cccZkVe1.s:365    .text:000000000000021c .L0 
     /tmp/cccZkVe1.s:367    .text:0000000000000220 .L0 
     /tmp/cccZkVe1.s:369    .text:0000000000000224 .L0 
     /tmp/cccZkVe1.s:372    .text:0000000000000228 .L0 
     /tmp/cccZkVe1.s:374    .text:000000000000022c .L0 
     /tmp/cccZkVe1.s:383    .sbss:0000000000000000 _ZN3TCB16timeSliceCounterE
     /tmp/cccZkVe1.s:394    .text:000000000000022c .L0 
     /tmp/cccZkVe1.s:66     .text:0000000000000058 .L0 
     /tmp/cccZkVe1.s:169    .text:00000000000000f0 .L0 
     /tmp/cccZkVe1.s:200    .text:0000000000000114 .L0 
     /tmp/cccZkVe1.s:286    .text:0000000000000194 .L0 
     /tmp/cccZkVe1.s:345    .text:00000000000001ec .L0 
     /tmp/cccZkVe1.s:60     .text:0000000000000050 .L6
     /tmp/cccZkVe1.s:63     .text:0000000000000054 .L2
     /tmp/cccZkVe1.s:89     .text:0000000000000098 .L7
     /tmp/cccZkVe1.s:107    .text:00000000000000bc .L1
     /tmp/cccZkVe1.s:73     .text:0000000000000070 .L3
     /tmp/cccZkVe1.s:194    .text:000000000000010c .L11
     /tmp/cccZkVe1.s:221    .text:0000000000000140 .L13
     /tmp/cccZkVe1.s:40     .text:0000000000000028 .LEHB0
     /tmp/cccZkVe1.s:13     .text:0000000000000000 .LFB36
     /tmp/cccZkVe1.s:43     .text:0000000000000030 .LEHE0
     /tmp/cccZkVe1.s:56     .text:0000000000000044 .LEHB1
     /tmp/cccZkVe1.s:87     .text:0000000000000094 .LEHE1
     /tmp/cccZkVe1.s:93     .text:00000000000000a0 .L8
     /tmp/cccZkVe1.s:103    .text:00000000000000b4 .LEHB2
     /tmp/cccZkVe1.s:106    .text:00000000000000bc .LEHE2
     /tmp/cccZkVe1.s:1392   .debug_abbrev:0000000000000000 .Ldebug_abbrev0
     /tmp/cccZkVe1.s:2563   .debug_str:000000000000036c .LASF106
     /tmp/cccZkVe1.s:2551   .debug_str:000000000000032b .LASF107
     /tmp/cccZkVe1.s:2547   .debug_str:000000000000030b .LASF108
     /tmp/cccZkVe1.s:8      .text:0000000000000000 .Ltext0
     /tmp/cccZkVe1.s:390    .text:000000000000022c .Letext0
     /tmp/cccZkVe1.s:2437   .debug_line:0000000000000000 .Ldebug_line0
     /tmp/cccZkVe1.s:2571   .debug_str:000000000000045e .LASF0
     /tmp/cccZkVe1.s:2587   .debug_str:00000000000004b9 .LASF1
     /tmp/cccZkVe1.s:2555   .debug_str:000000000000033e .LASF2
     /tmp/cccZkVe1.s:2533   .debug_str:00000000000002c8 .LASF4
     /tmp/cccZkVe1.s:2623   .debug_str:00000000000005cd .LASF3
     /tmp/cccZkVe1.s:2461   .debug_str:0000000000000083 .LASF5
GAS LISTING /tmp/cccZkVe1.s 			page 14


     /tmp/cccZkVe1.s:2589   .debug_str:00000000000004cc .LASF6
     /tmp/cccZkVe1.s:2569   .debug_str:000000000000044b .LASF7
     /tmp/cccZkVe1.s:2649   .debug_str:0000000000000698 .LASF8
     /tmp/cccZkVe1.s:2517   .debug_str:0000000000000223 .LASF9
     /tmp/cccZkVe1.s:2601   .debug_str:0000000000000540 .LASF10
     /tmp/cccZkVe1.s:2647   .debug_str:0000000000000689 .LASF11
     /tmp/cccZkVe1.s:2465   .debug_str:0000000000000092 .LASF12
     /tmp/cccZkVe1.s:2443   .debug_str:0000000000000011 .LASF13
     /tmp/cccZkVe1.s:2477   .debug_str:00000000000000f9 .LASF14
     /tmp/cccZkVe1.s:2613   .debug_str:0000000000000584 .LASF15
     /tmp/cccZkVe1.s:2485   .debug_str:0000000000000147 .LASF16
     /tmp/cccZkVe1.s:2599   .debug_str:0000000000000536 .LASF17
     /tmp/cccZkVe1.s:2507   .debug_str:00000000000001d0 .LASF48
     /tmp/cccZkVe1.s:2529   .debug_str:000000000000028c .LASF109
     /tmp/cccZkVe1.s:2473   .debug_str:00000000000000d7 .LASF110
     /tmp/cccZkVe1.s:2471   .debug_str:00000000000000cd .LASF111
     /tmp/cccZkVe1.s:2451   .debug_str:000000000000003a .LASF112
     /tmp/cccZkVe1.s:2491   .debug_str:0000000000000181 .LASF18
     /tmp/cccZkVe1.s:2607   .debug_str:0000000000000568 .LASF20
     /tmp/cccZkVe1.s:2591   .debug_str:00000000000004df .LASF26
     /tmp/cccZkVe1.s:2515   .debug_str:000000000000020c .LASF28
     /tmp/cccZkVe1.s:2557   .debug_str:000000000000034c .LASF19
     /tmp/cccZkVe1.s:2669   .debug_str:000000000000072f .LASF21
     /tmp/cccZkVe1.s:2539   .debug_str:00000000000002df .LASF22
     /tmp/cccZkVe1.s:2513   .debug_str:00000000000001fc .LASF23
     /tmp/cccZkVe1.s:2463   .debug_str:000000000000008a .LASF24
     /tmp/cccZkVe1.s:2519   .debug_str:0000000000000231 .LASF25
     /tmp/cccZkVe1.s:2449   .debug_str:0000000000000030 .LASF27
     /tmp/cccZkVe1.s:2595   .debug_str:000000000000050c .LASF29
     /tmp/cccZkVe1.s:2549   .debug_str:000000000000031e .LASF30
     /tmp/cccZkVe1.s:2459   .debug_str:000000000000006a .LASF31
     /tmp/cccZkVe1.s:2541   .debug_str:00000000000002e5 .LASF32
     /tmp/cccZkVe1.s:2585   .debug_str:0000000000000499 .LASF33
     /tmp/cccZkVe1.s:2609   .debug_str:0000000000000574 .LASF113
     /tmp/cccZkVe1.s:2615   .debug_str:000000000000059a .LASF54
     /tmp/cccZkVe1.s:2489   .debug_str:0000000000000171 .LASF56
     /tmp/cccZkVe1.s:2497   .debug_str:0000000000000194 .LASF114
     /tmp/cccZkVe1.s:2567   .debug_str:0000000000000436 .LASF115
     /tmp/cccZkVe1.s:2535   .debug_str:00000000000002cf .LASF34
     /tmp/cccZkVe1.s:2495   .debug_str:000000000000018f .LASF35
     /tmp/cccZkVe1.s:2577   .debug_str:000000000000047b .LASF36
     /tmp/cccZkVe1.s:2579   .debug_str:0000000000000481 .LASF37
     /tmp/cccZkVe1.s:2581   .debug_str:0000000000000489 .LASF38
     /tmp/cccZkVe1.s:2559   .debug_str:0000000000000358 .LASF39
     /tmp/cccZkVe1.s:2441   .debug_str:0000000000000008 .LASF40
     /tmp/cccZkVe1.s:2545   .debug_str:00000000000002fd .LASF42
     /tmp/cccZkVe1.s:2523   .debug_str:0000000000000259 .LASF44
     /tmp/cccZkVe1.s:2653   .debug_str:00000000000006bd .LASF41
     /tmp/cccZkVe1.s:2531   .debug_str:00000000000002a0 .LASF116
     /tmp/cccZkVe1.s:2575   .debug_str:0000000000000472 .LASF43
     /tmp/cccZkVe1.s:2503   .debug_str:00000000000001b8 .LASF45
     /tmp/cccZkVe1.s:2621   .debug_str:00000000000005c8 .LASF46
     /tmp/cccZkVe1.s:2467   .debug_str:00000000000000a2 .LASF47
     /tmp/cccZkVe1.s:2625   .debug_str:00000000000005df .LASF49
     /tmp/cccZkVe1.s:2543   .debug_str:00000000000002f2 .LASF50
     /tmp/cccZkVe1.s:2525   .debug_str:0000000000000272 .LASF51
     /tmp/cccZkVe1.s:2505   .debug_str:00000000000001cb .LASF52
GAS LISTING /tmp/cccZkVe1.s 			page 15


     /tmp/cccZkVe1.s:2583   .debug_str:0000000000000493 .LASF53
     /tmp/cccZkVe1.s:2611   .debug_str:0000000000000579 .LASF55
     /tmp/cccZkVe1.s:2663   .debug_str:0000000000000704 .LASF57
     /tmp/cccZkVe1.s:2445   .debug_str:0000000000000021 .LASF58
     /tmp/cccZkVe1.s:2637   .debug_str:0000000000000630 .LASF61
     /tmp/cccZkVe1.s:2493   .debug_str:0000000000000186 .LASF59
     /tmp/cccZkVe1.s:2481   .debug_str:000000000000011a .LASF64
     /tmp/cccZkVe1.s:2627   .debug_str:00000000000005f0 .LASF60
     /tmp/cccZkVe1.s:2605   .debug_str:0000000000000555 .LASF62
     /tmp/cccZkVe1.s:2645   .debug_str:0000000000000682 .LASF63
     /tmp/cccZkVe1.s:2641   .debug_str:000000000000065d .LASF65
     /tmp/cccZkVe1.s:2511   .debug_str:00000000000001f4 .LASF66
     /tmp/cccZkVe1.s:2487   .debug_str:000000000000015d .LASF67
     /tmp/cccZkVe1.s:2439   .debug_str:0000000000000000 .LASF68
     /tmp/cccZkVe1.s:2629   .debug_str:00000000000005f7 .LASF69
     /tmp/cccZkVe1.s:2499   .debug_str:000000000000019c .LASF70
     /tmp/cccZkVe1.s:2655   .debug_str:00000000000006cb .LASF71
     /tmp/cccZkVe1.s:2667   .debug_str:0000000000000727 .LASF72
     /tmp/cccZkVe1.s:2501   .debug_str:00000000000001a4 .LASF73
     /tmp/cccZkVe1.s:2573   .debug_str:000000000000046b .LASF74
     /tmp/cccZkVe1.s:2659   .debug_str:00000000000006ec .LASF75
     /tmp/cccZkVe1.s:2455   .debug_str:0000000000000048 .LASF76
     /tmp/cccZkVe1.s:2509   .debug_str:00000000000001e1 .LASF77
     /tmp/cccZkVe1.s:2565   .debug_str:0000000000000430 .LASF78
     /tmp/cccZkVe1.s:2643   .debug_str:0000000000000670 .LASF79
     /tmp/cccZkVe1.s:2453   .debug_str:0000000000000042 .LASF80
     /tmp/cccZkVe1.s:2673   .debug_str:0000000000000757 .LASF81
     /tmp/cccZkVe1.s:2665   .debug_str:000000000000071c .LASF82
     /tmp/cccZkVe1.s:2619   .debug_str:00000000000005b0 .LASF83
     /tmp/cccZkVe1.s:2537   .debug_str:00000000000002d4 .LASF84
     /tmp/cccZkVe1.s:2639   .debug_str:0000000000000645 .LASF85
     /tmp/cccZkVe1.s:2475   .debug_str:00000000000000ef .LASF86
     /tmp/cccZkVe1.s:2597   .debug_str:0000000000000520 .LASF87
     /tmp/cccZkVe1.s:2561   .debug_str:0000000000000362 .LASF88
     /tmp/cccZkVe1.s:2521   .debug_str:0000000000000243 .LASF89
     /tmp/cccZkVe1.s:2631   .debug_str:000000000000060b .LASF90
     /tmp/cccZkVe1.s:2469   .debug_str:00000000000000b1 .LASF91
     /tmp/cccZkVe1.s:2651   .debug_str:00000000000006a8 .LASF92
     /tmp/cccZkVe1.s:2593   .debug_str:00000000000004ea .LASF93
     /tmp/cccZkVe1.s:2671   .debug_str:0000000000000746 .LASF94
     /tmp/cccZkVe1.s:2457   .debug_str:000000000000004f .LASF95
     /tmp/cccZkVe1.s:328    .text:00000000000001d4 .LFB40
     /tmp/cccZkVe1.s:375    .text:000000000000022c .LFE40
     /tmp/cccZkVe1.s:2280   .debug_loc:0000000000000000 .LLST10
     /tmp/cccZkVe1.s:351    .text:0000000000000200 .LVL28
     /tmp/cccZkVe1.s:359    .text:0000000000000214 .LVL29
     /tmp/cccZkVe1.s:267    .text:0000000000000178 .LFB39
     /tmp/cccZkVe1.s:322    .text:00000000000001d4 .LFE39
     /tmp/cccZkVe1.s:297    .text:00000000000001b0 .LBB17
     /tmp/cccZkVe1.s:305    .text:00000000000001b8 .LBE17
     /tmp/cccZkVe1.s:2287   .debug_loc:0000000000000023 .LLST8
     /tmp/cccZkVe1.s:2295   .debug_loc:0000000000000047 .LLST9
     /tmp/cccZkVe1.s:283    .text:0000000000000194 .LVL22
     /tmp/cccZkVe1.s:309    .text:00000000000001c0 .LVL26
     /tmp/cccZkVe1.s:154    .text:00000000000000dc .LFB38
     /tmp/cccZkVe1.s:230    .text:0000000000000150 .LFE38
     /tmp/cccZkVe1.s:2302   .debug_loc:000000000000006a .LLST5
GAS LISTING /tmp/cccZkVe1.s 			page 16


     /tmp/cccZkVe1.s:173    .text:00000000000000fc .LBB13
     /tmp/cccZkVe1.s:180    .text:0000000000000100 .LBE13
     /tmp/cccZkVe1.s:2313   .debug_loc:00000000000000a0 .LLST6
     /tmp/cccZkVe1.s:184    .text:0000000000000104 .LBB15
     /tmp/cccZkVe1.s:191    .text:0000000000000108 .LBE15
     /tmp/cccZkVe1.s:2320   .debug_loc:00000000000000c3 .LLST7
     /tmp/cccZkVe1.s:198    .text:0000000000000114 .LVL16
     /tmp/cccZkVe1.s:206    .text:000000000000012c .LVL17
     /tmp/cccZkVe1.s:227    .text:000000000000014c .LVL20
     /tmp/cccZkVe1.s:236    .text:0000000000000150 .LFB37
     /tmp/cccZkVe1.s:261    .text:0000000000000178 .LFE37
     /tmp/cccZkVe1.s:250    .text:0000000000000168 .LVL21
     /tmp/cccZkVe1.s:128    .text:00000000000000dc .LFE36
     /tmp/cccZkVe1.s:2327   .debug_loc:00000000000000e6 .LLST0
     /tmp/cccZkVe1.s:2356   .debug_loc:000000000000015b .LLST1
     /tmp/cccZkVe1.s:46     .text:0000000000000034 .LBB11
     /tmp/cccZkVe1.s:97     .text:00000000000000a4 .LBE11
     /tmp/cccZkVe1.s:2374   .debug_loc:00000000000001a7 .LLST2
     /tmp/cccZkVe1.s:2388   .debug_loc:00000000000001e0 .LLST3
     /tmp/cccZkVe1.s:2413   .debug_loc:0000000000000242 .LLST4
     /tmp/cccZkVe1.s:58     .text:000000000000004c .LVL4
     /tmp/cccZkVe1.s:86     .text:0000000000000094 .LVL5
     /tmp/cccZkVe1.s:42     .text:0000000000000030 .LVL2
     /tmp/cccZkVe1.s:101    .text:00000000000000b0 .LVL7
     /tmp/cccZkVe1.s:105    .text:00000000000000bc .LVL8
     /tmp/cccZkVe1.s:2661   .debug_str:00000000000006ff .LASF96
     /tmp/cccZkVe1.s:2479   .debug_str:0000000000000105 .LASF117
     /tmp/cccZkVe1.s:2603   .debug_str:000000000000054f .LASF97
     /tmp/cccZkVe1.s:2635   .debug_str:000000000000062a .LASF98
     /tmp/cccZkVe1.s:2617   .debug_str:00000000000005a0 .LASF100
     /tmp/cccZkVe1.s:2447   .debug_str:000000000000002a .LASF99
     /tmp/cccZkVe1.s:2657   .debug_str:00000000000006df .LASF101
     /tmp/cccZkVe1.s:2553   .debug_str:0000000000000337 .LASF102
     /tmp/cccZkVe1.s:2633   .debug_str:000000000000061a .LASF103
     /tmp/cccZkVe1.s:2527   .debug_str:000000000000027d .LASF104
     /tmp/cccZkVe1.s:2483   .debug_str:000000000000012f .LASF105
     /tmp/cccZkVe1.s:347    .text:00000000000001f8 .LVL27
     /tmp/cccZkVe1.s:370    .text:0000000000000224 .LVL30
     /tmp/cccZkVe1.s:296    .text:00000000000001b0 .LVL24
     /tmp/cccZkVe1.s:303    .text:00000000000001b8 .LVL25
     /tmp/cccZkVe1.s:171    .text:00000000000000fc .LVL12
     /tmp/cccZkVe1.s:216    .text:0000000000000138 .LVL18
     /tmp/cccZkVe1.s:220    .text:0000000000000140 .LVL19
     /tmp/cccZkVe1.s:178    .text:0000000000000100 .LVL13
     /tmp/cccZkVe1.s:183    .text:0000000000000104 .LVL14
     /tmp/cccZkVe1.s:189    .text:0000000000000108 .LVL15
     /tmp/cccZkVe1.s:19     .text:0000000000000000 .LVL0
     /tmp/cccZkVe1.s:39     .text:0000000000000028 .LVL1
     /tmp/cccZkVe1.s:95     .text:00000000000000a4 .LVL6
     /tmp/cccZkVe1.s:120    .text:00000000000000d0 .LVL10
     /tmp/cccZkVe1.s:123    .text:00000000000000d4 .LVL11
     /tmp/cccZkVe1.s:45     .text:0000000000000034 .LVL3
     /tmp/cccZkVe1.s:117    .text:00000000000000cc .LVL9
     /tmp/cccZkVe1.s:395    .debug_info:0000000000000000 .Ldebug_info0
     /tmp/cccZkVe1.s:131    .gcc_except_table:0000000000000000 .LLSDA36

UNDEFINED SYMBOLS
GAS LISTING /tmp/cccZkVe1.s 			page 17


_Znwm
_Znam
_ZN9Scheduler3putEP3TCB
_ZdlPv
_Unwind_Resume
__gxx_personality_v0
_ZN9Scheduler3getEv
_ZN3TCB13contextSwitchEPNS_7ContextES1_
_ZN5Riscv10popSppSpieEv
