GAS LISTING /tmp/ccZFcfw8.s 			page 1


   1              		.file	"workers.cpp"
   2              		.option nopic
   3              		.option norelax
   4              		.attribute arch, "rv64i2p0_m2p0_a2p0"
   5              		.attribute unaligned_access, 0
   6              		.attribute stack_align, 16
   7              		.text
   8              	.Ltext0:
   9              		.align	2
  11              	_ZL9fibonaccim:
  12              	.LFB21:
  13              		.file 1 "src/workers.cpp"
   1:src/workers.cpp **** #include "../lib/hw.h"
   2:src/workers.cpp **** #include "../h/tcb.hpp"
   3:src/workers.cpp **** #include "../h/print.hpp"
   4:src/workers.cpp **** #include "../h/syscall_c.hpp"
   5:src/workers.cpp **** 
   6:src/workers.cpp **** void worker_ecall(void* arg) {
   7:src/workers.cpp ****     printString("Starting ecall worker\n");
   8:src/workers.cpp ****     __asm__ volatile ("ecall");
   9:src/workers.cpp ****     for(int i = 0; i < 99999999; ++i)
  10:src/workers.cpp ****         for(int j = 0; j < 99999999; ++j)
  11:src/workers.cpp ****             continue;
  12:src/workers.cpp ****     printString("Finishing ecall worker\n");
  13:src/workers.cpp **** }
  14:src/workers.cpp **** 
  15:src/workers.cpp **** void workerBodyA(void* arg)
  16:src/workers.cpp **** {
  17:src/workers.cpp ****     for (uint64 i = 0; i < 10; i++)
  18:src/workers.cpp ****     {
  19:src/workers.cpp ****         printString("A: i=");
  20:src/workers.cpp ****         printInteger(i);
  21:src/workers.cpp ****         printString("\n");
  22:src/workers.cpp ****         for (uint64 j = 0; j < 10000; j++)
  23:src/workers.cpp ****         {
  24:src/workers.cpp ****             for (uint64 k = 0; k < 30000; k++)
  25:src/workers.cpp ****             {
  26:src/workers.cpp ****                 // busy wait
  27:src/workers.cpp ****             }
  28:src/workers.cpp **** //            TCB::yield();
  29:src/workers.cpp ****         }
  30:src/workers.cpp ****     }
  31:src/workers.cpp **** }
  32:src/workers.cpp **** 
  33:src/workers.cpp **** void workerBodyB(void* arg)
  34:src/workers.cpp **** {
  35:src/workers.cpp ****     for (uint64 i = 0; i < 16; i++)
  36:src/workers.cpp ****     {
  37:src/workers.cpp ****         printString("B: i=");
  38:src/workers.cpp ****         printInteger(i);
  39:src/workers.cpp ****         printString("\n");
  40:src/workers.cpp ****         for (uint64 j = 0; j < 10000; j++)
  41:src/workers.cpp ****         {
  42:src/workers.cpp ****             for (uint64 k = 0; k < 30000; k++)
  43:src/workers.cpp ****             {
  44:src/workers.cpp ****                 // busy wait
  45:src/workers.cpp ****             }
GAS LISTING /tmp/ccZFcfw8.s 			page 2


  46:src/workers.cpp **** //            TCB::yield();
  47:src/workers.cpp ****         }
  48:src/workers.cpp ****     }
  49:src/workers.cpp **** }
  50:src/workers.cpp **** 
  51:src/workers.cpp **** static uint64 fibonacci(uint64 n)
  52:src/workers.cpp **** {
  14              		.loc 1 52 1
  15              		.cfi_startproc
  16              	.LVL0:
  53:src/workers.cpp ****     if (n == 0 || n == 1) { return n; }
  17              		.loc 1 53 5
  18 0000 93071000 		li	a5,1
  19 0004 63F8A706 		bleu	a0,a5,.L6
  52:src/workers.cpp ****     if (n == 0 || n == 1) { return n; }
  20              		.loc 1 52 1 is_stmt 0
  21 0008 130101FE 		addi	sp,sp,-32
  22              		.cfi_def_cfa_offset 32
  23 000c 233C1100 		sd	ra,24(sp)
  24 0010 23388100 		sd	s0,16(sp)
  25 0014 23349100 		sd	s1,8(sp)
  26 0018 23302101 		sd	s2,0(sp)
  27              		.cfi_offset 1, -8
  28              		.cfi_offset 8, -16
  29              		.cfi_offset 9, -24
  30              		.cfi_offset 18, -32
  31 001c 13040102 		addi	s0,sp,32
  32              		.cfi_def_cfa 8, 0
  33 0020 93040500 		mv	s1,a0
  54:src/workers.cpp ****     if (n % 10 == 0) { TCB::yield(); }
  34              		.loc 1 54 5 is_stmt 1
  35              		.loc 1 54 11 is_stmt 0
  36 0024 9307A000 		li	a5,10
  37 0028 B377F502 		remu	a5,a0,a5
  38              		.loc 1 54 5
  39 002c 638E0702 		beq	a5,zero,.L9
  40              	.LVL1:
  41              	.L3:
  55:src/workers.cpp ****     return fibonacci(n - 1) + fibonacci(n - 2);
  42              		.loc 1 55 5 is_stmt 1
  43              		.loc 1 55 21 is_stmt 0
  44 0030 1385F4FF 		addi	a0,s1,-1
  45 0034 97000000 		call	_ZL9fibonaccim
  45      E7800000 
  46              	.LVL2:
  47 003c 13090500 		mv	s2,a0
  48              		.loc 1 55 40
  49 0040 1385E4FF 		addi	a0,s1,-2
  50 0044 97000000 		call	_ZL9fibonaccim
  50      E7800000 
  51              	.LVL3:
  52              		.loc 1 55 46
  53 004c 3305A900 		add	a0,s2,a0
  56:src/workers.cpp **** }
  54              		.loc 1 56 1
  55 0050 83308101 		ld	ra,24(sp)
  56              		.cfi_remember_state
GAS LISTING /tmp/ccZFcfw8.s 			page 3


  57              		.cfi_restore 1
  58 0054 03340101 		ld	s0,16(sp)
  59              		.cfi_restore 8
  60              		.cfi_def_cfa 2, 32
  61 0058 83348100 		ld	s1,8(sp)
  62              		.cfi_restore 9
  63              	.LVL4:
  64 005c 03390100 		ld	s2,0(sp)
  65              		.cfi_restore 18
  66 0060 13010102 		addi	sp,sp,32
  67              		.cfi_def_cfa_offset 0
  68 0064 67800000 		jr	ra
  69              	.LVL5:
  70              	.L9:
  71              		.cfi_restore_state
  54:src/workers.cpp ****     if (n % 10 == 0) { TCB::yield(); }
  72              		.loc 1 54 24 is_stmt 1 discriminator 1
  54:src/workers.cpp ****     if (n % 10 == 0) { TCB::yield(); }
  73              		.loc 1 54 34 is_stmt 0 discriminator 1
  74 0068 97000000 		call	_ZN3TCB5yieldEv
  74      E7800000 
  75              	.LVL6:
  76 0070 6FF01FFC 		j	.L3
  77              	.LVL7:
  78              	.L6:
  79              		.cfi_def_cfa_register 2
  80              		.cfi_restore 1
  81              		.cfi_restore 8
  82              		.cfi_restore 9
  83              		.cfi_restore 18
  84              		.loc 1 56 1
  85 0074 67800000 		ret
  86              		.cfi_endproc
  87              	.LFE21:
  89              		.align	2
  90              		.globl	_Z12worker_ecallPv
  92              	_Z12worker_ecallPv:
  93              	.LFB18:
   6:src/workers.cpp ****     printString("Starting ecall worker\n");
  94              		.loc 1 6 30 is_stmt 1
  95              		.cfi_startproc
  96              	.LVL8:
  97 0078 130101FF 		addi	sp,sp,-16
  98              		.cfi_def_cfa_offset 16
  99 007c 23341100 		sd	ra,8(sp)
 100 0080 23308100 		sd	s0,0(sp)
 101              		.cfi_offset 1, -8
 102              		.cfi_offset 8, -16
 103 0084 13040101 		addi	s0,sp,16
 104              		.cfi_def_cfa 8, 0
   7:src/workers.cpp ****     __asm__ volatile ("ecall");
 105              		.loc 1 7 5
   7:src/workers.cpp ****     __asm__ volatile ("ecall");
 106              		.loc 1 7 16 is_stmt 0
 107 0088 17050000 		lla	a0,.LC0
 107      13050500 
 108              	.LVL9:
GAS LISTING /tmp/ccZFcfw8.s 			page 4


 109 0090 97000000 		call	_Z11printStringPKc
 109      E7800000 
 110              	.LVL10:
   8:src/workers.cpp ****     for(int i = 0; i < 99999999; ++i)
 111              		.loc 1 8 5 is_stmt 1
   8:src/workers.cpp ****     for(int i = 0; i < 99999999; ++i)
 112              		.loc 1 8 31 is_stmt 0
 113              	 #APP
 114              	# 8 "src/workers.cpp" 1
   9:src/workers.cpp ****         for(int j = 0; j < 99999999; ++j)
 115              		ecall
 116              	# 0 "" 2
 117              		.loc 1 9 5 is_stmt 1
 118              	.LVL11:
 119              	 #NO_APP
 120              	.LBB2:
   9:src/workers.cpp ****         for(int j = 0; j < 99999999; ++j)
 121              		.loc 1 9 13 is_stmt 0
 122 009c 93060000 		li	a3,0
 123 00a0 6F008000 		j	.L14
 124              	.LVL12:
 125              	.L12:
   9:src/workers.cpp ****         for(int j = 0; j < 99999999; ++j)
 126              		.loc 1 9 5 discriminator 2
 127 00a4 9B861600 		addiw	a3,a3,1
 128              	.LVL13:
 129              	.L14:
   9:src/workers.cpp ****         for(int j = 0; j < 99999999; ++j)
 130              		.loc 1 9 22 discriminator 1
 131 00a8 B7E7F505 		li	a5,99999744
 132 00ac 9387E70F 		addi	a5,a5,254
 133 00b0 63CED700 		bgt	a3,a5,.L11
 134              	.LBB3:
  10:src/workers.cpp ****             continue;
 135              		.loc 1 10 17
 136 00b4 13070000 		li	a4,0
 137              	.L13:
 138              	.LVL14:
  10:src/workers.cpp ****             continue;
 139              		.loc 1 10 26 discriminator 4
 140 00b8 B7E7F505 		li	a5,99999744
 141 00bc 9387E70F 		addi	a5,a5,254
 142 00c0 E3C2E7FE 		bgt	a4,a5,.L12
  11:src/workers.cpp ****     printString("Finishing ecall worker\n");
 143              		.loc 1 11 13 is_stmt 1 discriminator 2
  10:src/workers.cpp ****             continue;
 144              		.loc 1 10 9 is_stmt 0 discriminator 2
 145 00c4 1B071700 		addiw	a4,a4,1
 146              	.LVL15:
 147 00c8 6FF01FFF 		j	.L13
 148              	.L11:
 149              	.LBE3:
 150              	.LBE2:
  12:src/workers.cpp **** }
 151              		.loc 1 12 5 is_stmt 1
  12:src/workers.cpp **** }
 152              		.loc 1 12 16 is_stmt 0
GAS LISTING /tmp/ccZFcfw8.s 			page 5


 153 00cc 17050000 		lla	a0,.LC1
 153      13050500 
 154 00d4 97000000 		call	_Z11printStringPKc
 154      E7800000 
 155              	.LVL16:
  13:src/workers.cpp **** 
 156              		.loc 1 13 1
 157 00dc 83308100 		ld	ra,8(sp)
 158              		.cfi_restore 1
 159 00e0 03340100 		ld	s0,0(sp)
 160              		.cfi_restore 8
 161              		.cfi_def_cfa 2, 16
 162 00e4 13010101 		addi	sp,sp,16
 163              		.cfi_def_cfa_offset 0
 164 00e8 67800000 		jr	ra
 165              		.cfi_endproc
 166              	.LFE18:
 168              		.align	2
 169              		.globl	_Z11workerBodyAPv
 171              	_Z11workerBodyAPv:
 172              	.LFB19:
  16:src/workers.cpp ****     for (uint64 i = 0; i < 10; i++)
 173              		.loc 1 16 1 is_stmt 1
 174              		.cfi_startproc
 175              	.LVL17:
 176 00ec 130101FE 		addi	sp,sp,-32
 177              		.cfi_def_cfa_offset 32
 178 00f0 233C1100 		sd	ra,24(sp)
 179 00f4 23388100 		sd	s0,16(sp)
 180 00f8 23349100 		sd	s1,8(sp)
 181              		.cfi_offset 1, -8
 182              		.cfi_offset 8, -16
 183              		.cfi_offset 9, -24
 184 00fc 13040102 		addi	s0,sp,32
 185              		.cfi_def_cfa 8, 0
  17:src/workers.cpp ****     {
 186              		.loc 1 17 5
 187              	.LVL18:
 188              	.LBB4:
  17:src/workers.cpp ****     {
 189              		.loc 1 17 17 is_stmt 0
 190 0100 93040000 		li	s1,0
 191 0104 6F000003 		j	.L22
 192              	.LVL19:
 193              	.L19:
 194              	.LBB5:
 195              	.LBB6:
  22:src/workers.cpp ****         {
 196              		.loc 1 22 9 discriminator 2
 197 0108 93861600 		addi	a3,a3,1
 198              	.LVL20:
 199              	.L21:
  22:src/workers.cpp ****         {
 200              		.loc 1 22 30 discriminator 1
 201 010c B7270000 		li	a5,8192
 202 0110 9387F770 		addi	a5,a5,1807
 203 0114 63EED700 		bgtu	a3,a5,.L18
GAS LISTING /tmp/ccZFcfw8.s 			page 6


 204              	.LBB7:
  24:src/workers.cpp ****             {
 205              		.loc 1 24 25
 206 0118 13070000 		li	a4,0
 207              	.L20:
 208              	.LVL21:
  24:src/workers.cpp ****             {
 209              		.loc 1 24 34 discriminator 3
 210 011c B7770000 		li	a5,28672
 211 0120 9387F752 		addi	a5,a5,1327
 212 0124 E3E2E7FE 		bgtu	a4,a5,.L19
  24:src/workers.cpp ****             {
 213              		.loc 1 24 13 discriminator 2
 214 0128 13071700 		addi	a4,a4,1
 215              	.LVL22:
 216 012c 6FF01FFF 		j	.L20
 217              	.LVL23:
 218              	.L18:
 219              	.LBE7:
 220              	.LBE6:
 221              	.LBE5:
  17:src/workers.cpp ****     {
 222              		.loc 1 17 5 discriminator 2
 223 0130 93841400 		addi	s1,s1,1
 224              	.LVL24:
 225              	.L22:
  17:src/workers.cpp ****     {
 226              		.loc 1 17 26 discriminator 1
 227 0134 93079000 		li	a5,9
 228 0138 63EC9702 		bgtu	s1,a5,.L16
 229              	.LBB9:
  19:src/workers.cpp ****         printInteger(i);
 230              		.loc 1 19 9 is_stmt 1
  19:src/workers.cpp ****         printInteger(i);
 231              		.loc 1 19 20 is_stmt 0
 232 013c 17050000 		lla	a0,.LC2
 232      13050500 
 233 0144 97000000 		call	_Z11printStringPKc
 233      E7800000 
 234              	.LVL25:
  20:src/workers.cpp ****         printString("\n");
 235              		.loc 1 20 9 is_stmt 1
  20:src/workers.cpp ****         printString("\n");
 236              		.loc 1 20 21 is_stmt 0
 237 014c 13850400 		mv	a0,s1
 238 0150 97000000 		call	_Z12printIntegerm
 238      E7800000 
 239              	.LVL26:
  21:src/workers.cpp ****         for (uint64 j = 0; j < 10000; j++)
 240              		.loc 1 21 9 is_stmt 1
  21:src/workers.cpp ****         for (uint64 j = 0; j < 10000; j++)
 241              		.loc 1 21 20 is_stmt 0
 242 0158 17050000 		lla	a0,.LC3
 242      13050500 
 243 0160 97000000 		call	_Z11printStringPKc
 243      E7800000 
 244              	.LVL27:
GAS LISTING /tmp/ccZFcfw8.s 			page 7


  22:src/workers.cpp ****         {
 245              		.loc 1 22 9 is_stmt 1
 246              	.LBB8:
  22:src/workers.cpp ****         {
 247              		.loc 1 22 21 is_stmt 0
 248 0168 93060000 		li	a3,0
 249 016c 6FF01FFA 		j	.L21
 250              	.LVL28:
 251              	.L16:
 252              	.LBE8:
 253              	.LBE9:
 254              	.LBE4:
  31:src/workers.cpp **** 
 255              		.loc 1 31 1
 256 0170 83308101 		ld	ra,24(sp)
 257              		.cfi_restore 1
 258 0174 03340101 		ld	s0,16(sp)
 259              		.cfi_restore 8
 260              		.cfi_def_cfa 2, 32
 261 0178 83348100 		ld	s1,8(sp)
 262              		.cfi_restore 9
 263              	.LVL29:
 264 017c 13010102 		addi	sp,sp,32
 265              		.cfi_def_cfa_offset 0
 266 0180 67800000 		jr	ra
 267              		.cfi_endproc
 268              	.LFE19:
 270              		.align	2
 271              		.globl	_Z11workerBodyBPv
 273              	_Z11workerBodyBPv:
 274              	.LFB20:
  34:src/workers.cpp ****     for (uint64 i = 0; i < 16; i++)
 275              		.loc 1 34 1 is_stmt 1
 276              		.cfi_startproc
 277              	.LVL30:
 278 0184 130101FE 		addi	sp,sp,-32
 279              		.cfi_def_cfa_offset 32
 280 0188 233C1100 		sd	ra,24(sp)
 281 018c 23388100 		sd	s0,16(sp)
 282 0190 23349100 		sd	s1,8(sp)
 283              		.cfi_offset 1, -8
 284              		.cfi_offset 8, -16
 285              		.cfi_offset 9, -24
 286 0194 13040102 		addi	s0,sp,32
 287              		.cfi_def_cfa 8, 0
  35:src/workers.cpp ****     {
 288              		.loc 1 35 5
 289              	.LVL31:
 290              	.LBB10:
  35:src/workers.cpp ****     {
 291              		.loc 1 35 17 is_stmt 0
 292 0198 93040000 		li	s1,0
 293 019c 6F000003 		j	.L30
 294              	.LVL32:
 295              	.L27:
 296              	.LBB11:
 297              	.LBB12:
GAS LISTING /tmp/ccZFcfw8.s 			page 8


  40:src/workers.cpp ****         {
 298              		.loc 1 40 9 discriminator 2
 299 01a0 93861600 		addi	a3,a3,1
 300              	.LVL33:
 301              	.L29:
  40:src/workers.cpp ****         {
 302              		.loc 1 40 30 discriminator 1
 303 01a4 B7270000 		li	a5,8192
 304 01a8 9387F770 		addi	a5,a5,1807
 305 01ac 63EED700 		bgtu	a3,a5,.L26
 306              	.LBB13:
  42:src/workers.cpp ****             {
 307              		.loc 1 42 25
 308 01b0 13070000 		li	a4,0
 309              	.L28:
 310              	.LVL34:
  42:src/workers.cpp ****             {
 311              		.loc 1 42 34 discriminator 3
 312 01b4 B7770000 		li	a5,28672
 313 01b8 9387F752 		addi	a5,a5,1327
 314 01bc E3E2E7FE 		bgtu	a4,a5,.L27
  42:src/workers.cpp ****             {
 315              		.loc 1 42 13 discriminator 2
 316 01c0 13071700 		addi	a4,a4,1
 317              	.LVL35:
 318 01c4 6FF01FFF 		j	.L28
 319              	.LVL36:
 320              	.L26:
 321              	.LBE13:
 322              	.LBE12:
 323              	.LBE11:
  35:src/workers.cpp ****     {
 324              		.loc 1 35 5 discriminator 2
 325 01c8 93841400 		addi	s1,s1,1
 326              	.LVL37:
 327              	.L30:
  35:src/workers.cpp ****     {
 328              		.loc 1 35 26 discriminator 1
 329 01cc 9307F000 		li	a5,15
 330 01d0 63EC9702 		bgtu	s1,a5,.L24
 331              	.LBB15:
  37:src/workers.cpp ****         printInteger(i);
 332              		.loc 1 37 9 is_stmt 1
  37:src/workers.cpp ****         printInteger(i);
 333              		.loc 1 37 20 is_stmt 0
 334 01d4 17050000 		lla	a0,.LC4
 334      13050500 
 335 01dc 97000000 		call	_Z11printStringPKc
 335      E7800000 
 336              	.LVL38:
  38:src/workers.cpp ****         printString("\n");
 337              		.loc 1 38 9 is_stmt 1
  38:src/workers.cpp ****         printString("\n");
 338              		.loc 1 38 21 is_stmt 0
 339 01e4 13850400 		mv	a0,s1
 340 01e8 97000000 		call	_Z12printIntegerm
 340      E7800000 
GAS LISTING /tmp/ccZFcfw8.s 			page 9


 341              	.LVL39:
  39:src/workers.cpp ****         for (uint64 j = 0; j < 10000; j++)
 342              		.loc 1 39 9 is_stmt 1
  39:src/workers.cpp ****         for (uint64 j = 0; j < 10000; j++)
 343              		.loc 1 39 20 is_stmt 0
 344 01f0 17050000 		lla	a0,.LC3
 344      13050500 
 345 01f8 97000000 		call	_Z11printStringPKc
 345      E7800000 
 346              	.LVL40:
  40:src/workers.cpp ****         {
 347              		.loc 1 40 9 is_stmt 1
 348              	.LBB14:
  40:src/workers.cpp ****         {
 349              		.loc 1 40 21 is_stmt 0
 350 0200 93060000 		li	a3,0
 351 0204 6FF01FFA 		j	.L29
 352              	.LVL41:
 353              	.L24:
 354              	.LBE14:
 355              	.LBE15:
 356              	.LBE10:
  49:src/workers.cpp **** 
 357              		.loc 1 49 1
 358 0208 83308101 		ld	ra,24(sp)
 359              		.cfi_restore 1
 360 020c 03340101 		ld	s0,16(sp)
 361              		.cfi_restore 8
 362              		.cfi_def_cfa 2, 32
 363 0210 83348100 		ld	s1,8(sp)
 364              		.cfi_restore 9
 365              	.LVL42:
 366 0214 13010102 		addi	sp,sp,32
 367              		.cfi_def_cfa_offset 0
 368 0218 67800000 		jr	ra
 369              		.cfi_endproc
 370              	.LFE20:
 372              		.align	2
 373              		.globl	_Z11workerBodyCPv
 375              	_Z11workerBodyCPv:
 376              	.LFB22:
  57:src/workers.cpp **** 
  58:src/workers.cpp **** void workerBodyC(void* arg)
  59:src/workers.cpp **** {
 377              		.loc 1 59 1 is_stmt 1
 378              		.cfi_startproc
 379              	.LVL43:
 380 021c 130101FE 		addi	sp,sp,-32
 381              		.cfi_def_cfa_offset 32
 382 0220 233C1100 		sd	ra,24(sp)
 383 0224 23388100 		sd	s0,16(sp)
 384 0228 23349100 		sd	s1,8(sp)
 385 022c 23302101 		sd	s2,0(sp)
 386              		.cfi_offset 1, -8
 387              		.cfi_offset 8, -16
 388              		.cfi_offset 9, -24
 389              		.cfi_offset 18, -32
GAS LISTING /tmp/ccZFcfw8.s 			page 10


 390 0230 13040102 		addi	s0,sp,32
 391              		.cfi_def_cfa 8, 0
  60:src/workers.cpp ****     uint8 i = 0;
 392              		.loc 1 60 5
 393              	.LVL44:
 394              		.loc 1 60 11 is_stmt 0
 395 0234 93040000 		li	s1,0
 396              	.LVL45:
 397              	.L34:
  61:src/workers.cpp ****     for (; i < 3; i++)
 398              		.loc 1 61 5 is_stmt 1 discriminator 2
 399              		.loc 1 61 14 is_stmt 0 discriminator 2
 400 0238 93072000 		li	a5,2
 401 023c 63EE9702 		bgtu	s1,a5,.L33
  62:src/workers.cpp ****     {
  63:src/workers.cpp ****         printString("C: i=");
 402              		.loc 1 63 9 is_stmt 1 discriminator 1
 403              		.loc 1 63 20 is_stmt 0 discriminator 1
 404 0240 17050000 		lla	a0,.LC5
 404      13050500 
 405 0248 97000000 		call	_Z11printStringPKc
 405      E7800000 
 406              	.LVL46:
  64:src/workers.cpp ****         printInteger(i);
 407              		.loc 1 64 9 is_stmt 1 discriminator 1
 408              		.loc 1 64 21 is_stmt 0 discriminator 1
 409 0250 13850400 		mv	a0,s1
 410 0254 97000000 		call	_Z12printIntegerm
 410      E7800000 
 411              	.LVL47:
  65:src/workers.cpp ****         printString("\n");
 412              		.loc 1 65 9 is_stmt 1 discriminator 1
 413              		.loc 1 65 20 is_stmt 0 discriminator 1
 414 025c 17050000 		lla	a0,.LC3
 414      13050500 
 415 0264 97000000 		call	_Z11printStringPKc
 415      E7800000 
 416              	.LVL48:
  61:src/workers.cpp ****     {
 417              		.loc 1 61 5 discriminator 1
 418 026c 9B841400 		addiw	s1,s1,1
 419              	.LVL49:
 420 0270 93F4F40F 		andi	s1,s1,0xff
 421              	.LVL50:
 422 0274 6FF05FFC 		j	.L34
 423              	.L33:
  66:src/workers.cpp ****     }
  67:src/workers.cpp **** 
  68:src/workers.cpp ****     printString("C: yield\n");
 424              		.loc 1 68 5 is_stmt 1
 425              		.loc 1 68 16 is_stmt 0
 426 0278 17050000 		lla	a0,.LC6
 426      13050500 
 427 0280 97000000 		call	_Z11printStringPKc
 427      E7800000 
 428              	.LVL51:
  69:src/workers.cpp ****     __asm__ ("li t1, 7");
GAS LISTING /tmp/ccZFcfw8.s 			page 11


 429              		.loc 1 69 5 is_stmt 1
 430              		.loc 1 69 25 is_stmt 0
 431              	 #APP
 432              	# 69 "src/workers.cpp" 1
  70              	    TCB::yield();
 433              		li t1, 7
 434              	# 0 "" 2
 435              		.loc 1 70 5 is_stmt 1
 436              		.loc 1 70 15 is_stmt 0
 437              	 #NO_APP
 438 028c 97000000 		call	_ZN3TCB5yieldEv
 438      E7800000 
 439              	.LVL52:
  71:src/workers.cpp **** 
  72:src/workers.cpp ****     uint64 t1 = 0;
 440              		.loc 1 72 5 is_stmt 1
  73:src/workers.cpp ****     __asm__ ("mv %[t1], t1" : [t1] "=r"(t1));
 441              		.loc 1 73 5
 442              		.loc 1 73 45 is_stmt 0
 443              	 #APP
 444              	# 73 "src/workers.cpp" 1
  74              	
 445              		mv s2, t1
 446              	# 0 "" 2
 447              	.LVL53:
  75:src/workers.cpp ****     printString("C: t1=");
 448              		.loc 1 75 5 is_stmt 1
 449              		.loc 1 75 16 is_stmt 0
 450              	 #NO_APP
 451 0298 17050000 		lla	a0,.LC7
 451      13050500 
 452 02a0 97000000 		call	_Z11printStringPKc
 452      E7800000 
 453              	.LVL54:
  76:src/workers.cpp ****     printInteger(t1);
 454              		.loc 1 76 5 is_stmt 1
 455              		.loc 1 76 17 is_stmt 0
 456 02a8 13050900 		mv	a0,s2
 457 02ac 97000000 		call	_Z12printIntegerm
 457      E7800000 
 458              	.LVL55:
  77:src/workers.cpp ****     printString("\n");
 459              		.loc 1 77 5 is_stmt 1
 460              		.loc 1 77 16 is_stmt 0
 461 02b4 17050000 		lla	a0,.LC3
 461      13050500 
 462 02bc 97000000 		call	_Z11printStringPKc
 462      E7800000 
 463              	.LVL56:
  78:src/workers.cpp **** 
  79:src/workers.cpp ****     uint64 result = fibonacci(12);
 464              		.loc 1 79 5 is_stmt 1
 465              		.loc 1 79 30 is_stmt 0
 466 02c4 1305C000 		li	a0,12
 467 02c8 97000000 		call	_ZL9fibonaccim
 467      E7800000 
 468              	.LVL57:
GAS LISTING /tmp/ccZFcfw8.s 			page 12


 469 02d0 13090500 		mv	s2,a0
 470              	.LVL58:
  80:src/workers.cpp ****     printString("C: fibonaci=");
 471              		.loc 1 80 5 is_stmt 1
 472              		.loc 1 80 16 is_stmt 0
 473 02d4 17050000 		lla	a0,.LC8
 473      13050500 
 474              	.LVL59:
 475 02dc 97000000 		call	_Z11printStringPKc
 475      E7800000 
 476              	.LVL60:
  81:src/workers.cpp ****     printInteger(result);
 477              		.loc 1 81 5 is_stmt 1
 478              		.loc 1 81 17 is_stmt 0
 479 02e4 13050900 		mv	a0,s2
 480 02e8 97000000 		call	_Z12printIntegerm
 480      E7800000 
 481              	.LVL61:
  82:src/workers.cpp ****     printString("\n");
 482              		.loc 1 82 5 is_stmt 1
 483              		.loc 1 82 16 is_stmt 0
 484 02f0 17050000 		lla	a0,.LC3
 484      13050500 
 485 02f8 97000000 		call	_Z11printStringPKc
 485      E7800000 
 486              	.LVL62:
 487              	.L36:
  83:src/workers.cpp **** 
  84:src/workers.cpp ****     for (; i < 6; i++)
 488              		.loc 1 84 5 is_stmt 1 discriminator 2
 489              		.loc 1 84 14 is_stmt 0 discriminator 2
 490 0300 93075000 		li	a5,5
 491 0304 63EE9702 		bgtu	s1,a5,.L32
  85:src/workers.cpp ****     {
  86:src/workers.cpp ****         printString("C: i=");
 492              		.loc 1 86 9 is_stmt 1 discriminator 1
 493              		.loc 1 86 20 is_stmt 0 discriminator 1
 494 0308 17050000 		lla	a0,.LC5
 494      13050500 
 495 0310 97000000 		call	_Z11printStringPKc
 495      E7800000 
 496              	.LVL63:
  87:src/workers.cpp ****         printInteger(i);
 497              		.loc 1 87 9 is_stmt 1 discriminator 1
 498              		.loc 1 87 21 is_stmt 0 discriminator 1
 499 0318 13850400 		mv	a0,s1
 500 031c 97000000 		call	_Z12printIntegerm
 500      E7800000 
 501              	.LVL64:
  88:src/workers.cpp ****         printString("\n");
 502              		.loc 1 88 9 is_stmt 1 discriminator 1
 503              		.loc 1 88 20 is_stmt 0 discriminator 1
 504 0324 17050000 		lla	a0,.LC3
 504      13050500 
 505 032c 97000000 		call	_Z11printStringPKc
 505      E7800000 
 506              	.LVL65:
GAS LISTING /tmp/ccZFcfw8.s 			page 13


  84:src/workers.cpp ****     {
 507              		.loc 1 84 5 discriminator 1
 508 0334 9B841400 		addiw	s1,s1,1
 509              	.LVL66:
 510 0338 93F4F40F 		andi	s1,s1,0xff
 511              	.LVL67:
 512 033c 6FF05FFC 		j	.L36
 513              	.L32:
  89:src/workers.cpp ****     }
  90:src/workers.cpp **** //    TCB::yield();
  91:src/workers.cpp **** }
 514              		.loc 1 91 1
 515 0340 83308101 		ld	ra,24(sp)
 516              		.cfi_restore 1
 517 0344 03340101 		ld	s0,16(sp)
 518              		.cfi_restore 8
 519              		.cfi_def_cfa 2, 32
 520 0348 83348100 		ld	s1,8(sp)
 521              		.cfi_restore 9
 522              	.LVL68:
 523 034c 03390100 		ld	s2,0(sp)
 524              		.cfi_restore 18
 525              	.LVL69:
 526 0350 13010102 		addi	sp,sp,32
 527              		.cfi_def_cfa_offset 0
 528 0354 67800000 		jr	ra
 529              		.cfi_endproc
 530              	.LFE22:
 532              		.align	2
 533              		.globl	_Z11workerBodyDPv
 535              	_Z11workerBodyDPv:
 536              	.LFB23:
  92:src/workers.cpp **** 
  93:src/workers.cpp **** void workerBodyD(void* arg)
  94:src/workers.cpp **** {
 537              		.loc 1 94 1 is_stmt 1
 538              		.cfi_startproc
 539              	.LVL70:
 540 0358 130101FE 		addi	sp,sp,-32
 541              		.cfi_def_cfa_offset 32
 542 035c 233C1100 		sd	ra,24(sp)
 543 0360 23388100 		sd	s0,16(sp)
 544 0364 23349100 		sd	s1,8(sp)
 545 0368 23302101 		sd	s2,0(sp)
 546              		.cfi_offset 1, -8
 547              		.cfi_offset 8, -16
 548              		.cfi_offset 9, -24
 549              		.cfi_offset 18, -32
 550 036c 13040102 		addi	s0,sp,32
 551              		.cfi_def_cfa 8, 0
  95:src/workers.cpp ****     uint8 i = 10;
 552              		.loc 1 95 5
 553              	.LVL71:
 554              		.loc 1 95 11 is_stmt 0
 555 0370 9304A000 		li	s1,10
 556              	.LVL72:
 557              	.L40:
GAS LISTING /tmp/ccZFcfw8.s 			page 14


  96:src/workers.cpp ****     for (; i < 13; i++)
 558              		.loc 1 96 5 is_stmt 1 discriminator 2
 559              		.loc 1 96 14 is_stmt 0 discriminator 2
 560 0374 9307C000 		li	a5,12
 561 0378 63EE9702 		bgtu	s1,a5,.L39
  97:src/workers.cpp ****     {
  98:src/workers.cpp ****         printString("D: i=");
 562              		.loc 1 98 9 is_stmt 1 discriminator 1
 563              		.loc 1 98 20 is_stmt 0 discriminator 1
 564 037c 17050000 		lla	a0,.LC9
 564      13050500 
 565 0384 97000000 		call	_Z11printStringPKc
 565      E7800000 
 566              	.LVL73:
  99:src/workers.cpp ****         printInteger(i);
 567              		.loc 1 99 9 is_stmt 1 discriminator 1
 568              		.loc 1 99 21 is_stmt 0 discriminator 1
 569 038c 13850400 		mv	a0,s1
 570 0390 97000000 		call	_Z12printIntegerm
 570      E7800000 
 571              	.LVL74:
 100:src/workers.cpp ****         printString("\n");
 572              		.loc 1 100 9 is_stmt 1 discriminator 1
 573              		.loc 1 100 20 is_stmt 0 discriminator 1
 574 0398 17050000 		lla	a0,.LC3
 574      13050500 
 575 03a0 97000000 		call	_Z11printStringPKc
 575      E7800000 
 576              	.LVL75:
  96:src/workers.cpp ****     {
 577              		.loc 1 96 5 discriminator 1
 578 03a8 9B841400 		addiw	s1,s1,1
 579              	.LVL76:
 580 03ac 93F4F40F 		andi	s1,s1,0xff
 581              	.LVL77:
 582 03b0 6FF05FFC 		j	.L40
 583              	.L39:
 101:src/workers.cpp ****     }
 102:src/workers.cpp **** 
 103:src/workers.cpp ****     printString("D: yield\n");
 584              		.loc 1 103 5 is_stmt 1
 585              		.loc 1 103 16 is_stmt 0
 586 03b4 17050000 		lla	a0,.LC10
 586      13050500 
 587 03bc 97000000 		call	_Z11printStringPKc
 587      E7800000 
 588              	.LVL78:
 104:src/workers.cpp ****     __asm__ ("li t1, 5");
 589              		.loc 1 104 5 is_stmt 1
 590              		.loc 1 104 25 is_stmt 0
 591              	 #APP
 592              	# 104 "src/workers.cpp" 1
 105              	    TCB::yield();
 593              		li t1, 5
 594              	# 0 "" 2
 595              		.loc 1 105 5 is_stmt 1
 596              		.loc 1 105 15 is_stmt 0
GAS LISTING /tmp/ccZFcfw8.s 			page 15


 597              	 #NO_APP
 598 03c8 97000000 		call	_ZN3TCB5yieldEv
 598      E7800000 
 599              	.LVL79:
 106:src/workers.cpp **** 
 107:src/workers.cpp ****     uint64 result = fibonacci(16);
 600              		.loc 1 107 5 is_stmt 1
 601              		.loc 1 107 30 is_stmt 0
 602 03d0 13050001 		li	a0,16
 603 03d4 97000000 		call	_ZL9fibonaccim
 603      E7800000 
 604              	.LVL80:
 605 03dc 13090500 		mv	s2,a0
 606              	.LVL81:
 108:src/workers.cpp ****     printString("D: fibonaci=");
 607              		.loc 1 108 5 is_stmt 1
 608              		.loc 1 108 16 is_stmt 0
 609 03e0 17050000 		lla	a0,.LC11
 609      13050500 
 610              	.LVL82:
 611 03e8 97000000 		call	_Z11printStringPKc
 611      E7800000 
 612              	.LVL83:
 109:src/workers.cpp ****     printInteger(result);
 613              		.loc 1 109 5 is_stmt 1
 614              		.loc 1 109 17 is_stmt 0
 615 03f0 13050900 		mv	a0,s2
 616 03f4 97000000 		call	_Z12printIntegerm
 616      E7800000 
 617              	.LVL84:
 110:src/workers.cpp ****     printString("\n");
 618              		.loc 1 110 5 is_stmt 1
 619              		.loc 1 110 16 is_stmt 0
 620 03fc 17050000 		lla	a0,.LC3
 620      13050500 
 621 0404 97000000 		call	_Z11printStringPKc
 621      E7800000 
 622              	.LVL85:
 623              	.L42:
 111:src/workers.cpp **** 
 112:src/workers.cpp ****     for (; i < 16; i++)
 624              		.loc 1 112 5 is_stmt 1 discriminator 2
 625              		.loc 1 112 14 is_stmt 0 discriminator 2
 626 040c 9307F000 		li	a5,15
 627 0410 63EE9702 		bgtu	s1,a5,.L38
 113:src/workers.cpp ****     {
 114:src/workers.cpp ****         printString("D: i=");
 628              		.loc 1 114 9 is_stmt 1 discriminator 1
 629              		.loc 1 114 20 is_stmt 0 discriminator 1
 630 0414 17050000 		lla	a0,.LC9
 630      13050500 
 631 041c 97000000 		call	_Z11printStringPKc
 631      E7800000 
 632              	.LVL86:
 115:src/workers.cpp ****         printInteger(i);
 633              		.loc 1 115 9 is_stmt 1 discriminator 1
 634              		.loc 1 115 21 is_stmt 0 discriminator 1
GAS LISTING /tmp/ccZFcfw8.s 			page 16


 635 0424 13850400 		mv	a0,s1
 636 0428 97000000 		call	_Z12printIntegerm
 636      E7800000 
 637              	.LVL87:
 116:src/workers.cpp ****         printString("\n");
 638              		.loc 1 116 9 is_stmt 1 discriminator 1
 639              		.loc 1 116 20 is_stmt 0 discriminator 1
 640 0430 17050000 		lla	a0,.LC3
 640      13050500 
 641 0438 97000000 		call	_Z11printStringPKc
 641      E7800000 
 642              	.LVL88:
 112:src/workers.cpp ****     {
 643              		.loc 1 112 5 discriminator 1
 644 0440 9B841400 		addiw	s1,s1,1
 645              	.LVL89:
 646 0444 93F4F40F 		andi	s1,s1,0xff
 647              	.LVL90:
 648 0448 6FF05FFC 		j	.L42
 649              	.L38:
 117:src/workers.cpp ****     }
 118:src/workers.cpp **** //    TCB::yield();
 119:src/workers.cpp **** }
 650              		.loc 1 119 1
 651 044c 83308101 		ld	ra,24(sp)
 652              		.cfi_restore 1
 653 0450 03340101 		ld	s0,16(sp)
 654              		.cfi_restore 8
 655              		.cfi_def_cfa 2, 32
 656 0454 83348100 		ld	s1,8(sp)
 657              		.cfi_restore 9
 658              	.LVL91:
 659 0458 03390100 		ld	s2,0(sp)
 660              		.cfi_restore 18
 661              	.LVL92:
 662 045c 13010102 		addi	sp,sp,32
 663              		.cfi_def_cfa_offset 0
 664 0460 67800000 		jr	ra
 665              		.cfi_endproc
 666              	.LFE23:
 668              		.align	2
 669              		.globl	_Z10workerTestPv
 671              	_Z10workerTestPv:
 672              	.LFB24:
 120:src/workers.cpp **** 
 121:src/workers.cpp **** void workerTest(void* arg)
 122:src/workers.cpp **** {
 673              		.loc 1 122 1 is_stmt 1
 674              		.cfi_startproc
 675              	.LVL93:
 676 0464 130101FE 		addi	sp,sp,-32
 677              		.cfi_def_cfa_offset 32
 678 0468 233C1100 		sd	ra,24(sp)
 679 046c 23388100 		sd	s0,16(sp)
 680 0470 23349100 		sd	s1,8(sp)
 681              		.cfi_offset 1, -8
 682              		.cfi_offset 8, -16
GAS LISTING /tmp/ccZFcfw8.s 			page 17


 683              		.cfi_offset 9, -24
 684 0474 13040102 		addi	s0,sp,32
 685              		.cfi_def_cfa 8, 0
 123:src/workers.cpp ****     printString("--------------------------------\n");
 686              		.loc 1 123 5
 687              		.loc 1 123 16 is_stmt 0
 688 0478 17050000 		lla	a0,.LC12
 688      13050500 
 689              	.LVL94:
 690 0480 97000000 		call	_Z11printStringPKc
 690      E7800000 
 691              	.LVL95:
 124:src/workers.cpp ****     printString("Starting test\n");
 692              		.loc 1 124 5 is_stmt 1
 693              		.loc 1 124 16 is_stmt 0
 694 0488 17050000 		lla	a0,.LC13
 694      13050500 
 695 0490 97000000 		call	_Z11printStringPKc
 695      E7800000 
 696              	.LVL96:
 125:src/workers.cpp ****     printString("--------------------------------\n");
 697              		.loc 1 125 5 is_stmt 1
 698              		.loc 1 125 16 is_stmt 0
 699 0498 17050000 		lla	a0,.LC12
 699      13050500 
 700 04a0 97000000 		call	_Z11printStringPKc
 700      E7800000 
 701              	.LVL97:
 126:src/workers.cpp **** 
 127:src/workers.cpp ****     void* ptr = mem_alloc(1024);
 702              		.loc 1 127 5 is_stmt 1
 703              		.loc 1 127 26 is_stmt 0
 704 04a8 13050040 		li	a0,1024
 705 04ac 97000000 		call	_Z9mem_allocm
 705      E7800000 
 706              	.LVL98:
 707 04b4 93040500 		mv	s1,a0
 708              	.LVL99:
 128:src/workers.cpp ****     printString("ptr=");
 709              		.loc 1 128 5 is_stmt 1
 710              		.loc 1 128 16 is_stmt 0
 711 04b8 17050000 		lla	a0,.LC14
 711      13050500 
 712 04c0 97000000 		call	_Z11printStringPKc
 712      E7800000 
 713              	.LVL100:
 129:src/workers.cpp ****     printInteger((uint64)ptr);
 714              		.loc 1 129 5 is_stmt 1
 715              		.loc 1 129 17 is_stmt 0
 716 04c8 13850400 		mv	a0,s1
 717 04cc 97000000 		call	_Z12printIntegerm
 717      E7800000 
 718              	.LVL101:
 130:src/workers.cpp ****     printString("\n");
 719              		.loc 1 130 5 is_stmt 1
 720              		.loc 1 130 16 is_stmt 0
 721 04d4 17050000 		lla	a0,.LC3
GAS LISTING /tmp/ccZFcfw8.s 			page 18


 721      13050500 
 722 04dc 97000000 		call	_Z11printStringPKc
 722      E7800000 
 723              	.LVL102:
 131:src/workers.cpp **** 
 132:src/workers.cpp ****     mem_free(ptr);
 724              		.loc 1 132 5 is_stmt 1
 725              		.loc 1 132 13 is_stmt 0
 726 04e4 13850400 		mv	a0,s1
 727 04e8 97000000 		call	_Z8mem_freePv
 727      E7800000 
 728              	.LVL103:
 133:src/workers.cpp ****     printString("ptr freed\n");
 729              		.loc 1 133 5 is_stmt 1
 730              		.loc 1 133 16 is_stmt 0
 731 04f0 17050000 		lla	a0,.LC15
 731      13050500 
 732 04f8 97000000 		call	_Z11printStringPKc
 732      E7800000 
 733              	.LVL104:
 134:src/workers.cpp **** 
 135:src/workers.cpp ****     printString("--------------------------------\n");
 734              		.loc 1 135 5 is_stmt 1
 735              		.loc 1 135 16 is_stmt 0
 736 0500 17050000 		lla	a0,.LC12
 736      13050500 
 737 0508 97000000 		call	_Z11printStringPKc
 737      E7800000 
 738              	.LVL105:
 136:src/workers.cpp ****     printString("Test finished\n");
 739              		.loc 1 136 5 is_stmt 1
 740              		.loc 1 136 16 is_stmt 0
 741 0510 17050000 		lla	a0,.LC16
 741      13050500 
 742 0518 97000000 		call	_Z11printStringPKc
 742      E7800000 
 743              	.LVL106:
 137:src/workers.cpp ****     printString("--------------------------------\n");
 744              		.loc 1 137 5 is_stmt 1
 745              		.loc 1 137 16 is_stmt 0
 746 0520 17050000 		lla	a0,.LC12
 746      13050500 
 747 0528 97000000 		call	_Z11printStringPKc
 747      E7800000 
 748              	.LVL107:
 138:src/workers.cpp **** 
 139:src/workers.cpp **** }...
 749              		.loc 1 139 1
 750 0530 83308101 		ld	ra,24(sp)
 751              		.cfi_restore 1
 752 0534 03340101 		ld	s0,16(sp)
 753              		.cfi_restore 8
 754              		.cfi_def_cfa 2, 32
 755 0538 83348100 		ld	s1,8(sp)
 756              		.cfi_restore 9
 757              	.LVL108:
 758 053c 13010102 		addi	sp,sp,32
GAS LISTING /tmp/ccZFcfw8.s 			page 19


 759              		.cfi_def_cfa_offset 0
 760 0540 67800000 		jr	ra
 761              		.cfi_endproc
 762              	.LFE24:
 764              		.section	.rodata.str1.8,"aMS",@progbits,1
 765              		.align	3
 766              	.LC0:
 767 0000 53746172 		.string	"Starting ecall worker\n"
 767      74696E67 
 767      20656361 
 767      6C6C2077 
 767      6F726B65 
 768 0017 00       		.zero	1
 769              	.LC1:
 770 0018 46696E69 		.string	"Finishing ecall worker\n"
 770      7368696E 
 770      67206563 
 770      616C6C20 
 770      776F726B 
 771              	.LC2:
 772 0030 413A2069 		.string	"A: i="
 772      3D00
 773 0036 0000     		.zero	2
 774              	.LC3:
 775 0038 0A00     		.string	"\n"
 776 003a 00000000 		.zero	6
 776      0000
 777              	.LC4:
 778 0040 423A2069 		.string	"B: i="
 778      3D00
 779 0046 0000     		.zero	2
 780              	.LC5:
 781 0048 433A2069 		.string	"C: i="
 781      3D00
 782 004e 0000     		.zero	2
 783              	.LC6:
 784 0050 433A2079 		.string	"C: yield\n"
 784      69656C64 
 784      0A00
 785 005a 00000000 		.zero	6
 785      0000
 786              	.LC7:
 787 0060 433A2074 		.string	"C: t1="
 787      313D00
 788 0067 00       		.zero	1
 789              	.LC8:
 790 0068 433A2066 		.string	"C: fibonaci="
 790      69626F6E 
 790      6163693D 
 790      00
 791 0075 000000   		.zero	3
 792              	.LC9:
 793 0078 443A2069 		.string	"D: i="
 793      3D00
 794 007e 0000     		.zero	2
 795              	.LC10:
 796 0080 443A2079 		.string	"D: yield\n"
GAS LISTING /tmp/ccZFcfw8.s 			page 20


 796      69656C64 
 796      0A00
 797 008a 00000000 		.zero	6
 797      0000
 798              	.LC11:
 799 0090 443A2066 		.string	"D: fibonaci="
 799      69626F6E 
 799      6163693D 
 799      00
 800 009d 000000   		.zero	3
 801              	.LC12:
 802 00a0 2D2D2D2D 		.string	"--------------------------------\n"
 802      2D2D2D2D 
 802      2D2D2D2D 
 802      2D2D2D2D 
 802      2D2D2D2D 
 803 00c2 00000000 		.zero	6
 803      0000
 804              	.LC13:
 805 00c8 53746172 		.string	"Starting test\n"
 805      74696E67 
 805      20746573 
 805      740A00
 806 00d7 00       		.zero	1
 807              	.LC14:
 808 00d8 7074723D 		.string	"ptr="
 808      00
 809 00dd 000000   		.zero	3
 810              	.LC15:
 811 00e0 70747220 		.string	"ptr freed\n"
 811      66726565 
 811      640A00
 812 00eb 00000000 		.zero	5
 812      00
 813              	.LC16:
 814 00f0 54657374 		.string	"Test finished\n"
 814      2066696E 
 814      69736865 
 814      640A00
 815              		.text
 816              	.Letext0:
 817              		.file 2 "src/../lib/hw.h"
 818              		.file 3 "src/../h/tcb.hpp"
 819              		.file 4 "src/../h/syscall_c.hpp"
 820              		.file 5 "src/../h/print.hpp"
GAS LISTING /tmp/ccZFcfw8.s 			page 21


DEFINED SYMBOLS
                            *ABS*:0000000000000000 workers.cpp
     /tmp/ccZFcfw8.s:11     .text:0000000000000000 _ZL9fibonaccim
     /tmp/ccZFcfw8.s:15     .text:0000000000000000 .L0 
     /tmp/ccZFcfw8.s:17     .text:0000000000000000 .L0 
     /tmp/ccZFcfw8.s:18     .text:0000000000000000 .L0 
     /tmp/ccZFcfw8.s:21     .text:0000000000000008 .L0 
     /tmp/ccZFcfw8.s:22     .text:000000000000000c .L0 
     /tmp/ccZFcfw8.s:27     .text:000000000000001c .L0 
     /tmp/ccZFcfw8.s:28     .text:000000000000001c .L0 
     /tmp/ccZFcfw8.s:29     .text:000000000000001c .L0 
     /tmp/ccZFcfw8.s:30     .text:000000000000001c .L0 
     /tmp/ccZFcfw8.s:32     .text:0000000000000020 .L0 
     /tmp/ccZFcfw8.s:35     .text:0000000000000024 .L0 
     /tmp/ccZFcfw8.s:36     .text:0000000000000024 .L0 
     /tmp/ccZFcfw8.s:39     .text:000000000000002c .L0 
     /tmp/ccZFcfw8.s:43     .text:0000000000000030 .L0 
     /tmp/ccZFcfw8.s:44     .text:0000000000000030 .L0 
     /tmp/ccZFcfw8.s:49     .text:0000000000000040 .L0 
     /tmp/ccZFcfw8.s:53     .text:000000000000004c .L0 
     /tmp/ccZFcfw8.s:55     .text:0000000000000050 .L0 
     /tmp/ccZFcfw8.s:56     .text:0000000000000054 .L0 
     /tmp/ccZFcfw8.s:57     .text:0000000000000054 .L0 
     /tmp/ccZFcfw8.s:59     .text:0000000000000058 .L0 
     /tmp/ccZFcfw8.s:60     .text:0000000000000058 .L0 
     /tmp/ccZFcfw8.s:62     .text:000000000000005c .L0 
     /tmp/ccZFcfw8.s:65     .text:0000000000000060 .L0 
     /tmp/ccZFcfw8.s:67     .text:0000000000000064 .L0 
     /tmp/ccZFcfw8.s:71     .text:0000000000000068 .L0 
     /tmp/ccZFcfw8.s:73     .text:0000000000000068 .L0 
     /tmp/ccZFcfw8.s:74     .text:0000000000000068 .L0 
     /tmp/ccZFcfw8.s:79     .text:0000000000000074 .L0 
     /tmp/ccZFcfw8.s:80     .text:0000000000000074 .L0 
     /tmp/ccZFcfw8.s:81     .text:0000000000000074 .L0 
     /tmp/ccZFcfw8.s:82     .text:0000000000000074 .L0 
     /tmp/ccZFcfw8.s:83     .text:0000000000000074 .L0 
     /tmp/ccZFcfw8.s:85     .text:0000000000000074 .L0 
     /tmp/ccZFcfw8.s:86     .text:0000000000000078 .L0 
     /tmp/ccZFcfw8.s:92     .text:0000000000000078 _Z12worker_ecallPv
     /tmp/ccZFcfw8.s:95     .text:0000000000000078 .L0 
     /tmp/ccZFcfw8.s:97     .text:0000000000000078 .L0 
     /tmp/ccZFcfw8.s:98     .text:000000000000007c .L0 
     /tmp/ccZFcfw8.s:101    .text:0000000000000084 .L0 
     /tmp/ccZFcfw8.s:102    .text:0000000000000084 .L0 
     /tmp/ccZFcfw8.s:104    .text:0000000000000088 .L0 
     /tmp/ccZFcfw8.s:106    .text:0000000000000088 .L0 
     /tmp/ccZFcfw8.s:107    .text:0000000000000088 .L0 
     /tmp/ccZFcfw8.s:112    .text:0000000000000098 .L0 
     src/workers.cpp:8      .text:0000000000000098 .L0 
     /tmp/ccZFcfw8.s:121    .text:000000000000009c .L0 
     /tmp/ccZFcfw8.s:122    .text:000000000000009c .L0 
     /tmp/ccZFcfw8.s:127    .text:00000000000000a4 .L0 
     /tmp/ccZFcfw8.s:131    .text:00000000000000a8 .L0 
     /tmp/ccZFcfw8.s:136    .text:00000000000000b4 .L0 
     /tmp/ccZFcfw8.s:140    .text:00000000000000b8 .L0 
     /tmp/ccZFcfw8.s:144    .text:00000000000000c4 .L0 
     /tmp/ccZFcfw8.s:145    .text:00000000000000c4 .L0 
GAS LISTING /tmp/ccZFcfw8.s 			page 22


     /tmp/ccZFcfw8.s:152    .text:00000000000000cc .L0 
     /tmp/ccZFcfw8.s:153    .text:00000000000000cc .L0 
     /tmp/ccZFcfw8.s:157    .text:00000000000000dc .L0 
     /tmp/ccZFcfw8.s:158    .text:00000000000000e0 .L0 
     /tmp/ccZFcfw8.s:160    .text:00000000000000e4 .L0 
     /tmp/ccZFcfw8.s:161    .text:00000000000000e4 .L0 
     /tmp/ccZFcfw8.s:163    .text:00000000000000e8 .L0 
     /tmp/ccZFcfw8.s:165    .text:00000000000000ec .L0 
     /tmp/ccZFcfw8.s:171    .text:00000000000000ec _Z11workerBodyAPv
     /tmp/ccZFcfw8.s:174    .text:00000000000000ec .L0 
     /tmp/ccZFcfw8.s:176    .text:00000000000000ec .L0 
     /tmp/ccZFcfw8.s:177    .text:00000000000000f0 .L0 
     /tmp/ccZFcfw8.s:181    .text:00000000000000fc .L0 
     /tmp/ccZFcfw8.s:182    .text:00000000000000fc .L0 
     /tmp/ccZFcfw8.s:183    .text:00000000000000fc .L0 
     /tmp/ccZFcfw8.s:185    .text:0000000000000100 .L0 
     /tmp/ccZFcfw8.s:189    .text:0000000000000100 .L0 
     /tmp/ccZFcfw8.s:190    .text:0000000000000100 .L0 
     /tmp/ccZFcfw8.s:197    .text:0000000000000108 .L0 
     /tmp/ccZFcfw8.s:201    .text:000000000000010c .L0 
     /tmp/ccZFcfw8.s:206    .text:0000000000000118 .L0 
     /tmp/ccZFcfw8.s:210    .text:000000000000011c .L0 
     /tmp/ccZFcfw8.s:214    .text:0000000000000128 .L0 
     /tmp/ccZFcfw8.s:223    .text:0000000000000130 .L0 
     /tmp/ccZFcfw8.s:227    .text:0000000000000134 .L0 
     /tmp/ccZFcfw8.s:231    .text:000000000000013c .L0 
     /tmp/ccZFcfw8.s:232    .text:000000000000013c .L0 
     /tmp/ccZFcfw8.s:236    .text:000000000000014c .L0 
     /tmp/ccZFcfw8.s:237    .text:000000000000014c .L0 
     /tmp/ccZFcfw8.s:241    .text:0000000000000158 .L0 
     /tmp/ccZFcfw8.s:242    .text:0000000000000158 .L0 
     /tmp/ccZFcfw8.s:247    .text:0000000000000168 .L0 
     /tmp/ccZFcfw8.s:248    .text:0000000000000168 .L0 
     /tmp/ccZFcfw8.s:256    .text:0000000000000170 .L0 
     /tmp/ccZFcfw8.s:257    .text:0000000000000174 .L0 
     /tmp/ccZFcfw8.s:259    .text:0000000000000178 .L0 
     /tmp/ccZFcfw8.s:260    .text:0000000000000178 .L0 
     /tmp/ccZFcfw8.s:262    .text:000000000000017c .L0 
     /tmp/ccZFcfw8.s:265    .text:0000000000000180 .L0 
     /tmp/ccZFcfw8.s:267    .text:0000000000000184 .L0 
     /tmp/ccZFcfw8.s:273    .text:0000000000000184 _Z11workerBodyBPv
     /tmp/ccZFcfw8.s:276    .text:0000000000000184 .L0 
     /tmp/ccZFcfw8.s:278    .text:0000000000000184 .L0 
     /tmp/ccZFcfw8.s:279    .text:0000000000000188 .L0 
     /tmp/ccZFcfw8.s:283    .text:0000000000000194 .L0 
     /tmp/ccZFcfw8.s:284    .text:0000000000000194 .L0 
     /tmp/ccZFcfw8.s:285    .text:0000000000000194 .L0 
     /tmp/ccZFcfw8.s:287    .text:0000000000000198 .L0 
     /tmp/ccZFcfw8.s:291    .text:0000000000000198 .L0 
     /tmp/ccZFcfw8.s:292    .text:0000000000000198 .L0 
     /tmp/ccZFcfw8.s:299    .text:00000000000001a0 .L0 
     /tmp/ccZFcfw8.s:303    .text:00000000000001a4 .L0 
     /tmp/ccZFcfw8.s:308    .text:00000000000001b0 .L0 
     /tmp/ccZFcfw8.s:312    .text:00000000000001b4 .L0 
     /tmp/ccZFcfw8.s:316    .text:00000000000001c0 .L0 
     /tmp/ccZFcfw8.s:325    .text:00000000000001c8 .L0 
     /tmp/ccZFcfw8.s:329    .text:00000000000001cc .L0 
GAS LISTING /tmp/ccZFcfw8.s 			page 23


     /tmp/ccZFcfw8.s:333    .text:00000000000001d4 .L0 
     /tmp/ccZFcfw8.s:334    .text:00000000000001d4 .L0 
     /tmp/ccZFcfw8.s:338    .text:00000000000001e4 .L0 
     /tmp/ccZFcfw8.s:339    .text:00000000000001e4 .L0 
     /tmp/ccZFcfw8.s:343    .text:00000000000001f0 .L0 
     /tmp/ccZFcfw8.s:344    .text:00000000000001f0 .L0 
     /tmp/ccZFcfw8.s:349    .text:0000000000000200 .L0 
     /tmp/ccZFcfw8.s:350    .text:0000000000000200 .L0 
     /tmp/ccZFcfw8.s:358    .text:0000000000000208 .L0 
     /tmp/ccZFcfw8.s:359    .text:000000000000020c .L0 
     /tmp/ccZFcfw8.s:361    .text:0000000000000210 .L0 
     /tmp/ccZFcfw8.s:362    .text:0000000000000210 .L0 
     /tmp/ccZFcfw8.s:364    .text:0000000000000214 .L0 
     /tmp/ccZFcfw8.s:367    .text:0000000000000218 .L0 
     /tmp/ccZFcfw8.s:369    .text:000000000000021c .L0 
     /tmp/ccZFcfw8.s:375    .text:000000000000021c _Z11workerBodyCPv
     /tmp/ccZFcfw8.s:378    .text:000000000000021c .L0 
     /tmp/ccZFcfw8.s:380    .text:000000000000021c .L0 
     /tmp/ccZFcfw8.s:381    .text:0000000000000220 .L0 
     /tmp/ccZFcfw8.s:386    .text:0000000000000230 .L0 
     /tmp/ccZFcfw8.s:387    .text:0000000000000230 .L0 
     /tmp/ccZFcfw8.s:388    .text:0000000000000230 .L0 
     /tmp/ccZFcfw8.s:389    .text:0000000000000230 .L0 
     /tmp/ccZFcfw8.s:391    .text:0000000000000234 .L0 
     /tmp/ccZFcfw8.s:394    .text:0000000000000234 .L0 
     /tmp/ccZFcfw8.s:395    .text:0000000000000234 .L0 
     /tmp/ccZFcfw8.s:399    .text:0000000000000238 .L0 
     /tmp/ccZFcfw8.s:400    .text:0000000000000238 .L0 
     /tmp/ccZFcfw8.s:403    .text:0000000000000240 .L0 
     /tmp/ccZFcfw8.s:404    .text:0000000000000240 .L0 
     /tmp/ccZFcfw8.s:408    .text:0000000000000250 .L0 
     /tmp/ccZFcfw8.s:409    .text:0000000000000250 .L0 
     /tmp/ccZFcfw8.s:413    .text:000000000000025c .L0 
     /tmp/ccZFcfw8.s:414    .text:000000000000025c .L0 
     /tmp/ccZFcfw8.s:418    .text:000000000000026c .L0 
     /tmp/ccZFcfw8.s:425    .text:0000000000000278 .L0 
     /tmp/ccZFcfw8.s:426    .text:0000000000000278 .L0 
     /tmp/ccZFcfw8.s:430    .text:0000000000000288 .L0 
     src/workers.cpp:69     .text:0000000000000288 .L0 
     /tmp/ccZFcfw8.s:436    .text:000000000000028c .L0 
     /tmp/ccZFcfw8.s:438    .text:000000000000028c .L0 
     /tmp/ccZFcfw8.s:441    .text:0000000000000294 .L0 
     /tmp/ccZFcfw8.s:442    .text:0000000000000294 .L0 
     src/workers.cpp:73     .text:0000000000000294 .L0 
     /tmp/ccZFcfw8.s:449    .text:0000000000000298 .L0 
     /tmp/ccZFcfw8.s:451    .text:0000000000000298 .L0 
     /tmp/ccZFcfw8.s:455    .text:00000000000002a8 .L0 
     /tmp/ccZFcfw8.s:456    .text:00000000000002a8 .L0 
     /tmp/ccZFcfw8.s:460    .text:00000000000002b4 .L0 
     /tmp/ccZFcfw8.s:461    .text:00000000000002b4 .L0 
     /tmp/ccZFcfw8.s:465    .text:00000000000002c4 .L0 
     /tmp/ccZFcfw8.s:466    .text:00000000000002c4 .L0 
     /tmp/ccZFcfw8.s:472    .text:00000000000002d4 .L0 
     /tmp/ccZFcfw8.s:473    .text:00000000000002d4 .L0 
     /tmp/ccZFcfw8.s:478    .text:00000000000002e4 .L0 
     /tmp/ccZFcfw8.s:479    .text:00000000000002e4 .L0 
     /tmp/ccZFcfw8.s:483    .text:00000000000002f0 .L0 
GAS LISTING /tmp/ccZFcfw8.s 			page 24


     /tmp/ccZFcfw8.s:484    .text:00000000000002f0 .L0 
     /tmp/ccZFcfw8.s:489    .text:0000000000000300 .L0 
     /tmp/ccZFcfw8.s:490    .text:0000000000000300 .L0 
     /tmp/ccZFcfw8.s:493    .text:0000000000000308 .L0 
     /tmp/ccZFcfw8.s:494    .text:0000000000000308 .L0 
     /tmp/ccZFcfw8.s:498    .text:0000000000000318 .L0 
     /tmp/ccZFcfw8.s:499    .text:0000000000000318 .L0 
     /tmp/ccZFcfw8.s:503    .text:0000000000000324 .L0 
     /tmp/ccZFcfw8.s:504    .text:0000000000000324 .L0 
     /tmp/ccZFcfw8.s:508    .text:0000000000000334 .L0 
     /tmp/ccZFcfw8.s:515    .text:0000000000000340 .L0 
     /tmp/ccZFcfw8.s:516    .text:0000000000000344 .L0 
     /tmp/ccZFcfw8.s:518    .text:0000000000000348 .L0 
     /tmp/ccZFcfw8.s:519    .text:0000000000000348 .L0 
     /tmp/ccZFcfw8.s:521    .text:000000000000034c .L0 
     /tmp/ccZFcfw8.s:524    .text:0000000000000350 .L0 
     /tmp/ccZFcfw8.s:527    .text:0000000000000354 .L0 
     /tmp/ccZFcfw8.s:529    .text:0000000000000358 .L0 
     /tmp/ccZFcfw8.s:535    .text:0000000000000358 _Z11workerBodyDPv
     /tmp/ccZFcfw8.s:538    .text:0000000000000358 .L0 
     /tmp/ccZFcfw8.s:540    .text:0000000000000358 .L0 
     /tmp/ccZFcfw8.s:541    .text:000000000000035c .L0 
     /tmp/ccZFcfw8.s:546    .text:000000000000036c .L0 
     /tmp/ccZFcfw8.s:547    .text:000000000000036c .L0 
     /tmp/ccZFcfw8.s:548    .text:000000000000036c .L0 
     /tmp/ccZFcfw8.s:549    .text:000000000000036c .L0 
     /tmp/ccZFcfw8.s:551    .text:0000000000000370 .L0 
     /tmp/ccZFcfw8.s:554    .text:0000000000000370 .L0 
     /tmp/ccZFcfw8.s:555    .text:0000000000000370 .L0 
     /tmp/ccZFcfw8.s:559    .text:0000000000000374 .L0 
     /tmp/ccZFcfw8.s:560    .text:0000000000000374 .L0 
     /tmp/ccZFcfw8.s:563    .text:000000000000037c .L0 
     /tmp/ccZFcfw8.s:564    .text:000000000000037c .L0 
     /tmp/ccZFcfw8.s:568    .text:000000000000038c .L0 
     /tmp/ccZFcfw8.s:569    .text:000000000000038c .L0 
     /tmp/ccZFcfw8.s:573    .text:0000000000000398 .L0 
     /tmp/ccZFcfw8.s:574    .text:0000000000000398 .L0 
     /tmp/ccZFcfw8.s:578    .text:00000000000003a8 .L0 
     /tmp/ccZFcfw8.s:585    .text:00000000000003b4 .L0 
     /tmp/ccZFcfw8.s:586    .text:00000000000003b4 .L0 
     /tmp/ccZFcfw8.s:590    .text:00000000000003c4 .L0 
     src/workers.cpp:104    .text:00000000000003c4 .L0 
     /tmp/ccZFcfw8.s:596    .text:00000000000003c8 .L0 
     /tmp/ccZFcfw8.s:598    .text:00000000000003c8 .L0 
     /tmp/ccZFcfw8.s:601    .text:00000000000003d0 .L0 
     /tmp/ccZFcfw8.s:602    .text:00000000000003d0 .L0 
     /tmp/ccZFcfw8.s:608    .text:00000000000003e0 .L0 
     /tmp/ccZFcfw8.s:609    .text:00000000000003e0 .L0 
     /tmp/ccZFcfw8.s:614    .text:00000000000003f0 .L0 
     /tmp/ccZFcfw8.s:615    .text:00000000000003f0 .L0 
     /tmp/ccZFcfw8.s:619    .text:00000000000003fc .L0 
     /tmp/ccZFcfw8.s:620    .text:00000000000003fc .L0 
     /tmp/ccZFcfw8.s:625    .text:000000000000040c .L0 
     /tmp/ccZFcfw8.s:626    .text:000000000000040c .L0 
     /tmp/ccZFcfw8.s:629    .text:0000000000000414 .L0 
     /tmp/ccZFcfw8.s:630    .text:0000000000000414 .L0 
     /tmp/ccZFcfw8.s:634    .text:0000000000000424 .L0 
GAS LISTING /tmp/ccZFcfw8.s 			page 25


     /tmp/ccZFcfw8.s:635    .text:0000000000000424 .L0 
     /tmp/ccZFcfw8.s:639    .text:0000000000000430 .L0 
     /tmp/ccZFcfw8.s:640    .text:0000000000000430 .L0 
     /tmp/ccZFcfw8.s:644    .text:0000000000000440 .L0 
     /tmp/ccZFcfw8.s:651    .text:000000000000044c .L0 
     /tmp/ccZFcfw8.s:652    .text:0000000000000450 .L0 
     /tmp/ccZFcfw8.s:654    .text:0000000000000454 .L0 
     /tmp/ccZFcfw8.s:655    .text:0000000000000454 .L0 
     /tmp/ccZFcfw8.s:657    .text:0000000000000458 .L0 
     /tmp/ccZFcfw8.s:660    .text:000000000000045c .L0 
     /tmp/ccZFcfw8.s:663    .text:0000000000000460 .L0 
     /tmp/ccZFcfw8.s:665    .text:0000000000000464 .L0 
     /tmp/ccZFcfw8.s:671    .text:0000000000000464 _Z10workerTestPv
     /tmp/ccZFcfw8.s:674    .text:0000000000000464 .L0 
     /tmp/ccZFcfw8.s:676    .text:0000000000000464 .L0 
     /tmp/ccZFcfw8.s:677    .text:0000000000000468 .L0 
     /tmp/ccZFcfw8.s:681    .text:0000000000000474 .L0 
     /tmp/ccZFcfw8.s:682    .text:0000000000000474 .L0 
     /tmp/ccZFcfw8.s:683    .text:0000000000000474 .L0 
     /tmp/ccZFcfw8.s:685    .text:0000000000000478 .L0 
     /tmp/ccZFcfw8.s:687    .text:0000000000000478 .L0 
     /tmp/ccZFcfw8.s:688    .text:0000000000000478 .L0 
     /tmp/ccZFcfw8.s:693    .text:0000000000000488 .L0 
     /tmp/ccZFcfw8.s:694    .text:0000000000000488 .L0 
     /tmp/ccZFcfw8.s:698    .text:0000000000000498 .L0 
     /tmp/ccZFcfw8.s:699    .text:0000000000000498 .L0 
     /tmp/ccZFcfw8.s:703    .text:00000000000004a8 .L0 
     /tmp/ccZFcfw8.s:704    .text:00000000000004a8 .L0 
     /tmp/ccZFcfw8.s:710    .text:00000000000004b8 .L0 
     /tmp/ccZFcfw8.s:711    .text:00000000000004b8 .L0 
     /tmp/ccZFcfw8.s:715    .text:00000000000004c8 .L0 
     /tmp/ccZFcfw8.s:716    .text:00000000000004c8 .L0 
     /tmp/ccZFcfw8.s:720    .text:00000000000004d4 .L0 
     /tmp/ccZFcfw8.s:721    .text:00000000000004d4 .L0 
     /tmp/ccZFcfw8.s:725    .text:00000000000004e4 .L0 
     /tmp/ccZFcfw8.s:726    .text:00000000000004e4 .L0 
     /tmp/ccZFcfw8.s:730    .text:00000000000004f0 .L0 
     /tmp/ccZFcfw8.s:731    .text:00000000000004f0 .L0 
     /tmp/ccZFcfw8.s:735    .text:0000000000000500 .L0 
     /tmp/ccZFcfw8.s:736    .text:0000000000000500 .L0 
     /tmp/ccZFcfw8.s:740    .text:0000000000000510 .L0 
     /tmp/ccZFcfw8.s:741    .text:0000000000000510 .L0 
     /tmp/ccZFcfw8.s:745    .text:0000000000000520 .L0 
     /tmp/ccZFcfw8.s:746    .text:0000000000000520 .L0 
     /tmp/ccZFcfw8.s:750    .text:0000000000000530 .L0 
     /tmp/ccZFcfw8.s:751    .text:0000000000000534 .L0 
     /tmp/ccZFcfw8.s:753    .text:0000000000000538 .L0 
     /tmp/ccZFcfw8.s:754    .text:0000000000000538 .L0 
     /tmp/ccZFcfw8.s:756    .text:000000000000053c .L0 
     /tmp/ccZFcfw8.s:759    .text:0000000000000540 .L0 
     /tmp/ccZFcfw8.s:761    .text:0000000000000544 .L0 
     /tmp/ccZFcfw8.s:821    .text:0000000000000544 .L0 
     /tmp/ccZFcfw8.s:766    .rodata.str1.8:0000000000000000 .LC0
     /tmp/ccZFcfw8.s:107    .text:0000000000000088 .L0 
     /tmp/ccZFcfw8.s:769    .rodata.str1.8:0000000000000018 .LC1
     /tmp/ccZFcfw8.s:153    .text:00000000000000cc .L0 
     /tmp/ccZFcfw8.s:771    .rodata.str1.8:0000000000000030 .LC2
GAS LISTING /tmp/ccZFcfw8.s 			page 26


     /tmp/ccZFcfw8.s:232    .text:000000000000013c .L0 
     /tmp/ccZFcfw8.s:774    .rodata.str1.8:0000000000000038 .LC3
     /tmp/ccZFcfw8.s:242    .text:0000000000000158 .L0 
     /tmp/ccZFcfw8.s:777    .rodata.str1.8:0000000000000040 .LC4
     /tmp/ccZFcfw8.s:334    .text:00000000000001d4 .L0 
     /tmp/ccZFcfw8.s:344    .text:00000000000001f0 .L0 
     /tmp/ccZFcfw8.s:780    .rodata.str1.8:0000000000000048 .LC5
     /tmp/ccZFcfw8.s:404    .text:0000000000000240 .L0 
     /tmp/ccZFcfw8.s:414    .text:000000000000025c .L0 
     /tmp/ccZFcfw8.s:783    .rodata.str1.8:0000000000000050 .LC6
     /tmp/ccZFcfw8.s:426    .text:0000000000000278 .L0 
     /tmp/ccZFcfw8.s:786    .rodata.str1.8:0000000000000060 .LC7
     /tmp/ccZFcfw8.s:451    .text:0000000000000298 .L0 
     /tmp/ccZFcfw8.s:461    .text:00000000000002b4 .L0 
     /tmp/ccZFcfw8.s:789    .rodata.str1.8:0000000000000068 .LC8
     /tmp/ccZFcfw8.s:473    .text:00000000000002d4 .L0 
     /tmp/ccZFcfw8.s:484    .text:00000000000002f0 .L0 
     /tmp/ccZFcfw8.s:494    .text:0000000000000308 .L0 
     /tmp/ccZFcfw8.s:504    .text:0000000000000324 .L0 
     /tmp/ccZFcfw8.s:792    .rodata.str1.8:0000000000000078 .LC9
     /tmp/ccZFcfw8.s:564    .text:000000000000037c .L0 
     /tmp/ccZFcfw8.s:574    .text:0000000000000398 .L0 
     /tmp/ccZFcfw8.s:795    .rodata.str1.8:0000000000000080 .LC10
     /tmp/ccZFcfw8.s:586    .text:00000000000003b4 .L0 
     /tmp/ccZFcfw8.s:798    .rodata.str1.8:0000000000000090 .LC11
     /tmp/ccZFcfw8.s:609    .text:00000000000003e0 .L0 
     /tmp/ccZFcfw8.s:620    .text:00000000000003fc .L0 
     /tmp/ccZFcfw8.s:630    .text:0000000000000414 .L0 
     /tmp/ccZFcfw8.s:640    .text:0000000000000430 .L0 
     /tmp/ccZFcfw8.s:801    .rodata.str1.8:00000000000000a0 .LC12
     /tmp/ccZFcfw8.s:688    .text:0000000000000478 .L0 
     /tmp/ccZFcfw8.s:804    .rodata.str1.8:00000000000000c8 .LC13
     /tmp/ccZFcfw8.s:694    .text:0000000000000488 .L0 
     /tmp/ccZFcfw8.s:699    .text:0000000000000498 .L0 
     /tmp/ccZFcfw8.s:807    .rodata.str1.8:00000000000000d8 .LC14
     /tmp/ccZFcfw8.s:711    .text:00000000000004b8 .L0 
     /tmp/ccZFcfw8.s:721    .text:00000000000004d4 .L0 
     /tmp/ccZFcfw8.s:810    .rodata.str1.8:00000000000000e0 .LC15
     /tmp/ccZFcfw8.s:731    .text:00000000000004f0 .L0 
     /tmp/ccZFcfw8.s:736    .text:0000000000000500 .L0 
     /tmp/ccZFcfw8.s:813    .rodata.str1.8:00000000000000f0 .LC16
     /tmp/ccZFcfw8.s:741    .text:0000000000000510 .L0 
     /tmp/ccZFcfw8.s:746    .text:0000000000000520 .L0 
     /tmp/ccZFcfw8.s:78     .text:0000000000000074 .L6
     /tmp/ccZFcfw8.s:70     .text:0000000000000068 .L9
     /tmp/ccZFcfw8.s:41     .text:0000000000000030 .L3
     /tmp/ccZFcfw8.s:129    .text:00000000000000a8 .L14
     /tmp/ccZFcfw8.s:148    .text:00000000000000cc .L11
     /tmp/ccZFcfw8.s:125    .text:00000000000000a4 .L12
     /tmp/ccZFcfw8.s:137    .text:00000000000000b8 .L13
     /tmp/ccZFcfw8.s:225    .text:0000000000000134 .L22
     /tmp/ccZFcfw8.s:218    .text:0000000000000130 .L18
     /tmp/ccZFcfw8.s:193    .text:0000000000000108 .L19
     /tmp/ccZFcfw8.s:207    .text:000000000000011c .L20
     /tmp/ccZFcfw8.s:251    .text:0000000000000170 .L16
     /tmp/ccZFcfw8.s:199    .text:000000000000010c .L21
     /tmp/ccZFcfw8.s:327    .text:00000000000001cc .L30
GAS LISTING /tmp/ccZFcfw8.s 			page 27


     /tmp/ccZFcfw8.s:320    .text:00000000000001c8 .L26
     /tmp/ccZFcfw8.s:295    .text:00000000000001a0 .L27
     /tmp/ccZFcfw8.s:309    .text:00000000000001b4 .L28
     /tmp/ccZFcfw8.s:353    .text:0000000000000208 .L24
     /tmp/ccZFcfw8.s:301    .text:00000000000001a4 .L29
     /tmp/ccZFcfw8.s:423    .text:0000000000000278 .L33
     /tmp/ccZFcfw8.s:397    .text:0000000000000238 .L34
     /tmp/ccZFcfw8.s:513    .text:0000000000000340 .L32
     /tmp/ccZFcfw8.s:487    .text:0000000000000300 .L36
     /tmp/ccZFcfw8.s:583    .text:00000000000003b4 .L39
     /tmp/ccZFcfw8.s:557    .text:0000000000000374 .L40
     /tmp/ccZFcfw8.s:649    .text:000000000000044c .L38
     /tmp/ccZFcfw8.s:623    .text:000000000000040c .L42
     /tmp/ccZFcfw8.s:2036   .debug_abbrev:0000000000000000 .Ldebug_abbrev0
     /tmp/ccZFcfw8.s:3127   .debug_str:0000000000000213 .LASF66
     /tmp/ccZFcfw8.s:3075   .debug_str:00000000000000a9 .LASF67
     /tmp/ccZFcfw8.s:3115   .debug_str:00000000000001c0 .LASF68
     /tmp/ccZFcfw8.s:8      .text:0000000000000000 .Ltext0
     /tmp/ccZFcfw8.s:816    .text:0000000000000544 .Letext0
     /tmp/ccZFcfw8.s:3045   .debug_line:0000000000000000 .Ldebug_line0
     /tmp/ccZFcfw8.s:3135   .debug_str:000000000000030b .LASF0
     /tmp/ccZFcfw8.s:3149   .debug_str:000000000000036c .LASF1
     /tmp/ccZFcfw8.s:3121   .debug_str:00000000000001ee .LASF2
     /tmp/ccZFcfw8.s:3081   .debug_str:00000000000000dd .LASF3
     /tmp/ccZFcfw8.s:3105   .debug_str:0000000000000196 .LASF4
     /tmp/ccZFcfw8.s:3173   .debug_str:0000000000000413 .LASF5
     /tmp/ccZFcfw8.s:3065   .debug_str:000000000000006f .LASF6
     /tmp/ccZFcfw8.s:3153   .debug_str:0000000000000391 .LASF7
     /tmp/ccZFcfw8.s:3133   .debug_str:00000000000002f8 .LASF8
     /tmp/ccZFcfw8.s:3193   .debug_str:00000000000004a5 .LASF9
     /tmp/ccZFcfw8.s:3093   .debug_str:0000000000000120 .LASF10
     /tmp/ccZFcfw8.s:3159   .debug_str:00000000000003c6 .LASF11
     /tmp/ccZFcfw8.s:3185   .debug_str:0000000000000461 .LASF12
     /tmp/ccZFcfw8.s:3069   .debug_str:000000000000007e .LASF13
     /tmp/ccZFcfw8.s:3053   .debug_str:000000000000001c .LASF14
     /tmp/ccZFcfw8.s:3073   .debug_str:000000000000009d .LASF15
     /tmp/ccZFcfw8.s:3167   .debug_str:00000000000003f2 .LASF16
     /tmp/ccZFcfw8.s:3079   .debug_str:00000000000000c7 .LASF17
     /tmp/ccZFcfw8.s:3057   .debug_str:0000000000000036 .LASF69
     /tmp/ccZFcfw8.s:3099   .debug_str:0000000000000159 .LASF18
     /tmp/ccZFcfw8.s:3163   .debug_str:00000000000003e1 .LASF20
     /tmp/ccZFcfw8.s:3109   .debug_str:00000000000001a2 .LASF19
     /tmp/ccZFcfw8.s:3091   .debug_str:0000000000000110 .LASF21
     /tmp/ccZFcfw8.s:3067   .debug_str:0000000000000076 .LASF22
     /tmp/ccZFcfw8.s:3095   .debug_str:000000000000012e .LASF23
     /tmp/ccZFcfw8.s:3055   .debug_str:000000000000002c .LASF24
     /tmp/ccZFcfw8.s:3155   .debug_str:00000000000003a4 .LASF26
     /tmp/ccZFcfw8.s:3117   .debug_str:00000000000001d3 .LASF25
     /tmp/ccZFcfw8.s:3063   .debug_str:0000000000000056 .LASF27
     /tmp/ccZFcfw8.s:3111   .debug_str:00000000000001a8 .LASF28
     /tmp/ccZFcfw8.s:3147   .debug_str:000000000000034c .LASF29
     /tmp/ccZFcfw8.s:3165   .debug_str:00000000000003ed .LASF70
     /tmp/ccZFcfw8.s:3169   .debug_str:0000000000000408 .LASF71
     /tmp/ccZFcfw8.s:3101   .debug_str:000000000000015e .LASF72
     /tmp/ccZFcfw8.s:3083   .debug_str:00000000000000e3 .LASF73
     /tmp/ccZFcfw8.s:3131   .debug_str:00000000000002e3 .LASF74
     /tmp/ccZFcfw8.s:3107   .debug_str:000000000000019d .LASF30
GAS LISTING /tmp/ccZFcfw8.s 			page 28


     /tmp/ccZFcfw8.s:3123   .debug_str:00000000000001fc .LASF31
     /tmp/ccZFcfw8.s:3141   .debug_str:0000000000000334 .LASF32
     /tmp/ccZFcfw8.s:3143   .debug_str:000000000000033a .LASF33
     /tmp/ccZFcfw8.s:3145   .debug_str:0000000000000342 .LASF34
     /tmp/ccZFcfw8.s:3051   .debug_str:0000000000000013 .LASF35
     /tmp/ccZFcfw8.s:3119   .debug_str:00000000000001e0 .LASF36
     /tmp/ccZFcfw8.s:3097   .debug_str:0000000000000140 .LASF38
     /tmp/ccZFcfw8.s:3197   .debug_str:00000000000004bf .LASF75
     /tmp/ccZFcfw8.s:3103   .debug_str:000000000000016e .LASF76
     /tmp/ccZFcfw8.s:3139   .debug_str:000000000000032b .LASF37
     /tmp/ccZFcfw8.s:3085   .debug_str:00000000000000eb .LASF39
     /tmp/ccZFcfw8.s:3171   .debug_str:000000000000040e .LASF40
     /tmp/ccZFcfw8.s:3071   .debug_str:000000000000008e .LASF41
     /tmp/ccZFcfw8.s:3175   .debug_str:0000000000000425 .LASF77
     /tmp/ccZFcfw8.s:3113   .debug_str:00000000000001b5 .LASF42
     /tmp/ccZFcfw8.s:3199   .debug_str:00000000000004cd .LASF43
     /tmp/ccZFcfw8.s:3087   .debug_str:00000000000000fe .LASF44
     /tmp/ccZFcfw8.s:3181   .debug_str:000000000000044d .LASF45
     /tmp/ccZFcfw8.s:3191   .debug_str:0000000000000494 .LASF46
     /tmp/ccZFcfw8.s:672    .text:0000000000000464 .LFB24
     /tmp/ccZFcfw8.s:762    .text:0000000000000544 .LFE24
     /tmp/ccZFcfw8.s:2738   .debug_loc:0000000000000000 .LLST19
     /tmp/ccZFcfw8.s:2752   .debug_loc:0000000000000039 .LLST20
     /tmp/ccZFcfw8.s:691    .text:0000000000000488 .LVL95
     /tmp/ccZFcfw8.s:696    .text:0000000000000498 .LVL96
     /tmp/ccZFcfw8.s:701    .text:00000000000004a8 .LVL97
     /tmp/ccZFcfw8.s:706    .text:00000000000004b4 .LVL98
     /tmp/ccZFcfw8.s:713    .text:00000000000004c8 .LVL100
     /tmp/ccZFcfw8.s:718    .text:00000000000004d4 .LVL101
     /tmp/ccZFcfw8.s:723    .text:00000000000004e4 .LVL102
     /tmp/ccZFcfw8.s:728    .text:00000000000004f0 .LVL103
     /tmp/ccZFcfw8.s:733    .text:0000000000000500 .LVL104
     /tmp/ccZFcfw8.s:738    .text:0000000000000510 .LVL105
     /tmp/ccZFcfw8.s:743    .text:0000000000000520 .LVL106
     /tmp/ccZFcfw8.s:748    .text:0000000000000530 .LVL107
     /tmp/ccZFcfw8.s:3061   .debug_str:000000000000004a .LASF47
     /tmp/ccZFcfw8.s:3125   .debug_str:0000000000000201 .LASF48
     /tmp/ccZFcfw8.s:536    .text:0000000000000358 .LFB23
     /tmp/ccZFcfw8.s:666    .text:0000000000000464 .LFE23
     /tmp/ccZFcfw8.s:2759   .debug_loc:000000000000005c .LLST16
     /tmp/ccZFcfw8.s:2773   .debug_loc:0000000000000095 .LLST17
     /tmp/ccZFcfw8.s:3047   .debug_str:0000000000000000 .LASF49
     /tmp/ccZFcfw8.s:2793   .debug_loc:00000000000000f2 .LLST18
     /tmp/ccZFcfw8.s:566    .text:000000000000038c .LVL73
     /tmp/ccZFcfw8.s:571    .text:0000000000000398 .LVL74
     /tmp/ccZFcfw8.s:576    .text:00000000000003a8 .LVL75
     /tmp/ccZFcfw8.s:588    .text:00000000000003c4 .LVL78
     /tmp/ccZFcfw8.s:599    .text:00000000000003d0 .LVL79
     /tmp/ccZFcfw8.s:604    .text:00000000000003dc .LVL80
     /tmp/ccZFcfw8.s:612    .text:00000000000003f0 .LVL83
     /tmp/ccZFcfw8.s:617    .text:00000000000003fc .LVL84
     /tmp/ccZFcfw8.s:622    .text:000000000000040c .LVL85
     /tmp/ccZFcfw8.s:632    .text:0000000000000424 .LVL86
     /tmp/ccZFcfw8.s:637    .text:0000000000000430 .LVL87
     /tmp/ccZFcfw8.s:642    .text:0000000000000440 .LVL88
     /tmp/ccZFcfw8.s:3059   .debug_str:000000000000003e .LASF50
     /tmp/ccZFcfw8.s:3151   .debug_str:000000000000037f .LASF51
GAS LISTING /tmp/ccZFcfw8.s 			page 29


     /tmp/ccZFcfw8.s:376    .text:000000000000021c .LFB22
     /tmp/ccZFcfw8.s:530    .text:0000000000000358 .LFE22
     /tmp/ccZFcfw8.s:2804   .debug_loc:0000000000000128 .LLST12
     /tmp/ccZFcfw8.s:2818   .debug_loc:0000000000000161 .LLST13
     /tmp/ccZFcfw8.s:2838   .debug_loc:00000000000001be .LLST14
     /tmp/ccZFcfw8.s:2846   .debug_loc:00000000000001e2 .LLST15
     /tmp/ccZFcfw8.s:406    .text:0000000000000250 .LVL46
     /tmp/ccZFcfw8.s:411    .text:000000000000025c .LVL47
     /tmp/ccZFcfw8.s:416    .text:000000000000026c .LVL48
     /tmp/ccZFcfw8.s:428    .text:0000000000000288 .LVL51
     /tmp/ccZFcfw8.s:439    .text:0000000000000294 .LVL52
     /tmp/ccZFcfw8.s:453    .text:00000000000002a8 .LVL54
     /tmp/ccZFcfw8.s:458    .text:00000000000002b4 .LVL55
     /tmp/ccZFcfw8.s:463    .text:00000000000002c4 .LVL56
     /tmp/ccZFcfw8.s:468    .text:00000000000002d0 .LVL57
     /tmp/ccZFcfw8.s:476    .text:00000000000002e4 .LVL60
     /tmp/ccZFcfw8.s:481    .text:00000000000002f0 .LVL61
     /tmp/ccZFcfw8.s:486    .text:0000000000000300 .LVL62
     /tmp/ccZFcfw8.s:496    .text:0000000000000318 .LVL63
     /tmp/ccZFcfw8.s:501    .text:0000000000000324 .LVL64
     /tmp/ccZFcfw8.s:506    .text:0000000000000334 .LVL65
     /tmp/ccZFcfw8.s:3195   .debug_str:00000000000004b5 .LASF78
     /tmp/ccZFcfw8.s:12     .text:0000000000000000 .LFB21
     /tmp/ccZFcfw8.s:87     .text:0000000000000078 .LFE21
     /tmp/ccZFcfw8.s:2857   .debug_loc:0000000000000218 .LLST0
     /tmp/ccZFcfw8.s:46     .text:000000000000003c .LVL2
     /tmp/ccZFcfw8.s:51     .text:000000000000004c .LVL3
     /tmp/ccZFcfw8.s:75     .text:0000000000000070 .LVL6
     /tmp/ccZFcfw8.s:3049   .debug_str:0000000000000007 .LASF52
     /tmp/ccZFcfw8.s:3201   .debug_str:00000000000004d8 .LASF53
     /tmp/ccZFcfw8.s:274    .text:0000000000000184 .LFB20
     /tmp/ccZFcfw8.s:370    .text:000000000000021c .LFE20
     /tmp/ccZFcfw8.s:2883   .debug_loc:000000000000028a .LLST8
     /tmp/ccZFcfw8.s:290    .text:0000000000000198 .LBB10
     /tmp/ccZFcfw8.s:356    .text:0000000000000208 .LBE10
     /tmp/ccZFcfw8.s:2897   .debug_loc:00000000000002c3 .LLST9
     /tmp/ccZFcfw8.s:3031   .debug_ranges:0000000000000000 .Ldebug_ranges0
     /tmp/ccZFcfw8.s:2909   .debug_loc:00000000000002fa .LLST10
     /tmp/ccZFcfw8.s:306    .text:00000000000001b0 .LBB13
     /tmp/ccZFcfw8.s:321    .text:00000000000001c8 .LBE13
     /tmp/ccZFcfw8.s:2921   .debug_loc:0000000000000331 .LLST11
     /tmp/ccZFcfw8.s:336    .text:00000000000001e4 .LVL38
     /tmp/ccZFcfw8.s:341    .text:00000000000001f0 .LVL39
     /tmp/ccZFcfw8.s:346    .text:0000000000000200 .LVL40
     /tmp/ccZFcfw8.s:3129   .debug_str:00000000000002d7 .LASF54
     /tmp/ccZFcfw8.s:3187   .debug_str:0000000000000470 .LASF55
     /tmp/ccZFcfw8.s:172    .text:00000000000000ec .LFB19
     /tmp/ccZFcfw8.s:268    .text:0000000000000184 .LFE19
     /tmp/ccZFcfw8.s:2932   .debug_loc:0000000000000367 .LLST4
     /tmp/ccZFcfw8.s:188    .text:0000000000000100 .LBB4
     /tmp/ccZFcfw8.s:254    .text:0000000000000170 .LBE4
     /tmp/ccZFcfw8.s:2946   .debug_loc:00000000000003a0 .LLST5
     /tmp/ccZFcfw8.s:2958   .debug_loc:00000000000003d7 .LLST6
     /tmp/ccZFcfw8.s:204    .text:0000000000000118 .LBB7
     /tmp/ccZFcfw8.s:219    .text:0000000000000130 .LBE7
     /tmp/ccZFcfw8.s:2970   .debug_loc:000000000000040e .LLST7
     /tmp/ccZFcfw8.s:234    .text:000000000000014c .LVL25
GAS LISTING /tmp/ccZFcfw8.s 			page 30


     /tmp/ccZFcfw8.s:239    .text:0000000000000158 .LVL26
     /tmp/ccZFcfw8.s:244    .text:0000000000000168 .LVL27
     /tmp/ccZFcfw8.s:3179   .debug_str:0000000000000440 .LASF56
     /tmp/ccZFcfw8.s:3137   .debug_str:0000000000000318 .LASF57
     /tmp/ccZFcfw8.s:93     .text:0000000000000078 .LFB18
     /tmp/ccZFcfw8.s:166    .text:00000000000000ec .LFE18
     /tmp/ccZFcfw8.s:2981   .debug_loc:0000000000000444 .LLST1
     /tmp/ccZFcfw8.s:120    .text:000000000000009c .LBB2
     /tmp/ccZFcfw8.s:150    .text:00000000000000cc .LBE2
     /tmp/ccZFcfw8.s:2995   .debug_loc:000000000000047d .LLST2
     /tmp/ccZFcfw8.s:134    .text:00000000000000b4 .LBB3
     /tmp/ccZFcfw8.s:149    .text:00000000000000cc .LBE3
     /tmp/ccZFcfw8.s:3007   .debug_loc:00000000000004b4 .LLST3
     /tmp/ccZFcfw8.s:110    .text:0000000000000098 .LVL10
     /tmp/ccZFcfw8.s:155    .text:00000000000000dc .LVL16
     /tmp/ccZFcfw8.s:3203   .debug_str:00000000000004ea .LASF58
     /tmp/ccZFcfw8.s:3161   .debug_str:00000000000003d5 .LASF60
     /tmp/ccZFcfw8.s:3077   .debug_str:00000000000000b9 .LASF59
     /tmp/ccZFcfw8.s:3177   .debug_str:0000000000000436 .LASF61
     /tmp/ccZFcfw8.s:3189   .debug_str:0000000000000482 .LASF62
     /tmp/ccZFcfw8.s:3089   .debug_str:0000000000000103 .LASF63
     /tmp/ccZFcfw8.s:3157   .debug_str:00000000000003b8 .LASF64
     /tmp/ccZFcfw8.s:3183   .debug_str:0000000000000458 .LASF65
     /tmp/ccZFcfw8.s:675    .text:0000000000000464 .LVL93
     /tmp/ccZFcfw8.s:689    .text:0000000000000480 .LVL94
     /tmp/ccZFcfw8.s:708    .text:00000000000004b8 .LVL99
     /tmp/ccZFcfw8.s:757    .text:000000000000053c .LVL108
     /tmp/ccZFcfw8.s:539    .text:0000000000000358 .LVL70
     /tmp/ccZFcfw8.s:556    .text:0000000000000374 .LVL72
     /tmp/ccZFcfw8.s:553    .text:0000000000000370 .LVL71
     /tmp/ccZFcfw8.s:579    .text:00000000000003ac .LVL76
     /tmp/ccZFcfw8.s:581    .text:00000000000003b0 .LVL77
     /tmp/ccZFcfw8.s:645    .text:0000000000000444 .LVL89
     /tmp/ccZFcfw8.s:647    .text:0000000000000448 .LVL90
     /tmp/ccZFcfw8.s:658    .text:0000000000000458 .LVL91
     /tmp/ccZFcfw8.s:606    .text:00000000000003e0 .LVL81
     /tmp/ccZFcfw8.s:610    .text:00000000000003e8 .LVL82
     /tmp/ccZFcfw8.s:661    .text:000000000000045c .LVL92
     /tmp/ccZFcfw8.s:379    .text:000000000000021c .LVL43
     /tmp/ccZFcfw8.s:396    .text:0000000000000238 .LVL45
     /tmp/ccZFcfw8.s:393    .text:0000000000000234 .LVL44
     /tmp/ccZFcfw8.s:419    .text:0000000000000270 .LVL49
     /tmp/ccZFcfw8.s:421    .text:0000000000000274 .LVL50
     /tmp/ccZFcfw8.s:509    .text:0000000000000338 .LVL66
     /tmp/ccZFcfw8.s:511    .text:000000000000033c .LVL67
     /tmp/ccZFcfw8.s:522    .text:000000000000034c .LVL68
     /tmp/ccZFcfw8.s:447    .text:0000000000000298 .LVL53
     /tmp/ccZFcfw8.s:470    .text:00000000000002d4 .LVL58
     /tmp/ccZFcfw8.s:474    .text:00000000000002dc .LVL59
     /tmp/ccZFcfw8.s:525    .text:0000000000000350 .LVL69
     /tmp/ccZFcfw8.s:16     .text:0000000000000000 .LVL0
     /tmp/ccZFcfw8.s:40     .text:0000000000000030 .LVL1
     /tmp/ccZFcfw8.s:63     .text:000000000000005c .LVL4
     /tmp/ccZFcfw8.s:69     .text:0000000000000068 .LVL5
     /tmp/ccZFcfw8.s:77     .text:0000000000000074 .LVL7
     /tmp/ccZFcfw8.s:277    .text:0000000000000184 .LVL30
     /tmp/ccZFcfw8.s:294    .text:00000000000001a0 .LVL32
GAS LISTING /tmp/ccZFcfw8.s 			page 31


     /tmp/ccZFcfw8.s:289    .text:0000000000000198 .LVL31
     /tmp/ccZFcfw8.s:365    .text:0000000000000214 .LVL42
     /tmp/ccZFcfw8.s:326    .text:00000000000001cc .LVL37
     /tmp/ccZFcfw8.s:352    .text:0000000000000208 .LVL41
     /tmp/ccZFcfw8.s:300    .text:00000000000001a4 .LVL33
     /tmp/ccZFcfw8.s:310    .text:00000000000001b4 .LVL34
     /tmp/ccZFcfw8.s:319    .text:00000000000001c8 .LVL36
     /tmp/ccZFcfw8.s:175    .text:00000000000000ec .LVL17
     /tmp/ccZFcfw8.s:192    .text:0000000000000108 .LVL19
     /tmp/ccZFcfw8.s:187    .text:0000000000000100 .LVL18
     /tmp/ccZFcfw8.s:263    .text:000000000000017c .LVL29
     /tmp/ccZFcfw8.s:224    .text:0000000000000134 .LVL24
     /tmp/ccZFcfw8.s:250    .text:0000000000000170 .LVL28
     /tmp/ccZFcfw8.s:198    .text:000000000000010c .LVL20
     /tmp/ccZFcfw8.s:208    .text:000000000000011c .LVL21
     /tmp/ccZFcfw8.s:217    .text:0000000000000130 .LVL23
     /tmp/ccZFcfw8.s:96     .text:0000000000000078 .LVL8
     /tmp/ccZFcfw8.s:108    .text:0000000000000090 .LVL9
     /tmp/ccZFcfw8.s:118    .text:000000000000009c .LVL11
     /tmp/ccZFcfw8.s:124    .text:00000000000000a4 .LVL12
     /tmp/ccZFcfw8.s:128    .text:00000000000000a8 .LVL13
     /tmp/ccZFcfw8.s:138    .text:00000000000000b8 .LVL14
     /tmp/ccZFcfw8.s:146    .text:00000000000000c8 .LVL15
     /tmp/ccZFcfw8.s:822    .debug_info:0000000000000000 .Ldebug_info0
     /tmp/ccZFcfw8.s:195    .text:0000000000000108 .LBB6
     /tmp/ccZFcfw8.s:220    .text:0000000000000130 .LBE6
     /tmp/ccZFcfw8.s:246    .text:0000000000000168 .LBB8
     /tmp/ccZFcfw8.s:252    .text:0000000000000170 .LBE8
     /tmp/ccZFcfw8.s:297    .text:00000000000001a0 .LBB12
     /tmp/ccZFcfw8.s:322    .text:00000000000001c8 .LBE12
     /tmp/ccZFcfw8.s:348    .text:0000000000000200 .LBB14
     /tmp/ccZFcfw8.s:354    .text:0000000000000208 .LBE14

UNDEFINED SYMBOLS
_ZN3TCB5yieldEv
_Z11printStringPKc
_Z12printIntegerm
_Z9mem_allocm
_Z8mem_freePv
