GAS LISTING /tmp/ccRZJF7n.s 			page 1


   1              		.file	"workers.cpp"
   2              		.option nopic
   3              		.option norelax
   4              		.attribute arch, "rv64i2p0_m2p0_a2p0"
   5              		.attribute unaligned_access, 0
   6              		.attribute stack_align, 16
   7              		.text
   8              	.Ltext0:
   9              		.align	2
  11              	_ZL9fibonaccim:
  12              	.LFB20:
  13              		.file 1 "src/workers.cpp"
   1:src/workers.cpp **** #include "../lib/hw.h"
   2:src/workers.cpp **** #include "../h/tcb.hpp"
   3:src/workers.cpp **** #include "../h/print.hpp"
   4:src/workers.cpp **** #include "../h/syscall_c.hpp"
   5:src/workers.cpp **** 
   6:src/workers.cpp **** void worker_ecall() {
   7:src/workers.cpp ****     printString("Starting ecall worker\n");
   8:src/workers.cpp ****     __asm__ volatile ("ecall");
   9:src/workers.cpp ****     for(int i = 0; i < 99999999; ++i)
  10:src/workers.cpp ****         for(int j = 0; j < 99999999; ++j)
  11:src/workers.cpp ****             continue;
  12:src/workers.cpp ****     printString("Finishing ecall worker\n");
  13:src/workers.cpp **** }
  14:src/workers.cpp **** 
  15:src/workers.cpp **** void workerBodyA()
  16:src/workers.cpp **** {
  17:src/workers.cpp ****     for (uint64 i = 0; i < 10; i++)
  18:src/workers.cpp ****     {
  19:src/workers.cpp ****         printString("A: i=");
  20:src/workers.cpp ****         printInteger(i);
  21:src/workers.cpp ****         printString("\n");
  22:src/workers.cpp ****         for (uint64 j = 0; j < 10000; j++)
  23:src/workers.cpp ****         {
  24:src/workers.cpp ****             for (uint64 k = 0; k < 30000; k++)
  25:src/workers.cpp ****             {
  26:src/workers.cpp ****                 // busy wait
  27:src/workers.cpp ****             }
  28:src/workers.cpp **** //            TCB::yield();
  29:src/workers.cpp ****         }
  30:src/workers.cpp ****     }
  31:src/workers.cpp **** }
  32:src/workers.cpp **** 
  33:src/workers.cpp **** void workerBodyB()
  34:src/workers.cpp **** {
  35:src/workers.cpp ****     for (uint64 i = 0; i < 16; i++)
  36:src/workers.cpp ****     {
  37:src/workers.cpp ****         printString("B: i=");
  38:src/workers.cpp ****         printInteger(i);
  39:src/workers.cpp ****         printString("\n");
  40:src/workers.cpp ****         for (uint64 j = 0; j < 10000; j++)
  41:src/workers.cpp ****         {
  42:src/workers.cpp ****             for (uint64 k = 0; k < 30000; k++)
  43:src/workers.cpp ****             {
  44:src/workers.cpp ****                 // busy wait
  45:src/workers.cpp ****             }
GAS LISTING /tmp/ccRZJF7n.s 			page 2


  46:src/workers.cpp **** //            TCB::yield();
  47:src/workers.cpp ****         }
  48:src/workers.cpp ****     }
  49:src/workers.cpp **** }
  50:src/workers.cpp **** 
  51:src/workers.cpp **** static uint64 fibonacci(uint64 n)
  52:src/workers.cpp **** {
  14              		.loc 1 52 1
  15              		.cfi_startproc
  16              	.LVL0:
  53:src/workers.cpp ****     if (n == 0 || n == 1) { return n; }
  17              		.loc 1 53 5
  18 0000 93071000 		li	a5,1
  19 0004 63F8A706 		bleu	a0,a5,.L6
  52:src/workers.cpp ****     if (n == 0 || n == 1) { return n; }
  20              		.loc 1 52 1 is_stmt 0
  21 0008 130101FE 		addi	sp,sp,-32
  22              		.cfi_def_cfa_offset 32
  23 000c 233C1100 		sd	ra,24(sp)
  24 0010 23388100 		sd	s0,16(sp)
  25 0014 23349100 		sd	s1,8(sp)
  26 0018 23302101 		sd	s2,0(sp)
  27              		.cfi_offset 1, -8
  28              		.cfi_offset 8, -16
  29              		.cfi_offset 9, -24
  30              		.cfi_offset 18, -32
  31 001c 13040102 		addi	s0,sp,32
  32              		.cfi_def_cfa 8, 0
  33 0020 93040500 		mv	s1,a0
  54:src/workers.cpp ****     if (n % 10 == 0) { TCB::yield(); }
  34              		.loc 1 54 5 is_stmt 1
  35              		.loc 1 54 11 is_stmt 0
  36 0024 9307A000 		li	a5,10
  37 0028 B377F502 		remu	a5,a0,a5
  38              		.loc 1 54 5
  39 002c 638E0702 		beq	a5,zero,.L9
  40              	.LVL1:
  41              	.L3:
  55:src/workers.cpp ****     return fibonacci(n - 1) + fibonacci(n - 2);
  42              		.loc 1 55 5 is_stmt 1
  43              		.loc 1 55 21 is_stmt 0
  44 0030 1385F4FF 		addi	a0,s1,-1
  45 0034 97000000 		call	_ZL9fibonaccim
  45      E7800000 
  46              	.LVL2:
  47 003c 13090500 		mv	s2,a0
  48              		.loc 1 55 40
  49 0040 1385E4FF 		addi	a0,s1,-2
  50 0044 97000000 		call	_ZL9fibonaccim
  50      E7800000 
  51              	.LVL3:
  52              		.loc 1 55 46
  53 004c 3305A900 		add	a0,s2,a0
  56:src/workers.cpp **** }
  54              		.loc 1 56 1
  55 0050 83308101 		ld	ra,24(sp)
  56              		.cfi_remember_state
GAS LISTING /tmp/ccRZJF7n.s 			page 3


  57              		.cfi_restore 1
  58 0054 03340101 		ld	s0,16(sp)
  59              		.cfi_restore 8
  60              		.cfi_def_cfa 2, 32
  61 0058 83348100 		ld	s1,8(sp)
  62              		.cfi_restore 9
  63              	.LVL4:
  64 005c 03390100 		ld	s2,0(sp)
  65              		.cfi_restore 18
  66 0060 13010102 		addi	sp,sp,32
  67              		.cfi_def_cfa_offset 0
  68 0064 67800000 		jr	ra
  69              	.LVL5:
  70              	.L9:
  71              		.cfi_restore_state
  54:src/workers.cpp ****     if (n % 10 == 0) { TCB::yield(); }
  72              		.loc 1 54 24 is_stmt 1 discriminator 1
  54:src/workers.cpp ****     if (n % 10 == 0) { TCB::yield(); }
  73              		.loc 1 54 34 is_stmt 0 discriminator 1
  74 0068 97000000 		call	_ZN3TCB5yieldEv
  74      E7800000 
  75              	.LVL6:
  76 0070 6FF01FFC 		j	.L3
  77              	.LVL7:
  78              	.L6:
  79              		.cfi_def_cfa_register 2
  80              		.cfi_restore 1
  81              		.cfi_restore 8
  82              		.cfi_restore 9
  83              		.cfi_restore 18
  84              		.loc 1 56 1
  85 0074 67800000 		ret
  86              		.cfi_endproc
  87              	.LFE20:
  89              		.align	2
  90              		.globl	_Z12worker_ecallv
  92              	_Z12worker_ecallv:
  93              	.LFB17:
   6:src/workers.cpp ****     printString("Starting ecall worker\n");
  94              		.loc 1 6 21 is_stmt 1
  95              		.cfi_startproc
  96 0078 130101FF 		addi	sp,sp,-16
  97              		.cfi_def_cfa_offset 16
  98 007c 23341100 		sd	ra,8(sp)
  99 0080 23308100 		sd	s0,0(sp)
 100              		.cfi_offset 1, -8
 101              		.cfi_offset 8, -16
 102 0084 13040101 		addi	s0,sp,16
 103              		.cfi_def_cfa 8, 0
   7:src/workers.cpp ****     __asm__ volatile ("ecall");
 104              		.loc 1 7 5
   7:src/workers.cpp ****     __asm__ volatile ("ecall");
 105              		.loc 1 7 16 is_stmt 0
 106 0088 17050000 		lla	a0,.LC0
 106      13050500 
 107 0090 97000000 		call	_Z11printStringPKc
 107      E7800000 
GAS LISTING /tmp/ccRZJF7n.s 			page 4


 108              	.LVL8:
   8:src/workers.cpp ****     for(int i = 0; i < 99999999; ++i)
 109              		.loc 1 8 5 is_stmt 1
   8:src/workers.cpp ****     for(int i = 0; i < 99999999; ++i)
 110              		.loc 1 8 31 is_stmt 0
 111              	 #APP
 112              	# 8 "src/workers.cpp" 1
   9:src/workers.cpp ****         for(int j = 0; j < 99999999; ++j)
 113              		ecall
 114              	# 0 "" 2
 115              		.loc 1 9 5 is_stmt 1
 116              	.LVL9:
 117              	 #NO_APP
 118              	.LBB2:
   9:src/workers.cpp ****         for(int j = 0; j < 99999999; ++j)
 119              		.loc 1 9 13 is_stmt 0
 120 009c 93060000 		li	a3,0
 121 00a0 6F008000 		j	.L14
 122              	.LVL10:
 123              	.L12:
   9:src/workers.cpp ****         for(int j = 0; j < 99999999; ++j)
 124              		.loc 1 9 5 discriminator 2
 125 00a4 9B861600 		addiw	a3,a3,1
 126              	.LVL11:
 127              	.L14:
   9:src/workers.cpp ****         for(int j = 0; j < 99999999; ++j)
 128              		.loc 1 9 22 discriminator 1
 129 00a8 B7E7F505 		li	a5,99999744
 130 00ac 9387E70F 		addi	a5,a5,254
 131 00b0 63CED700 		bgt	a3,a5,.L11
 132              	.LBB3:
  10:src/workers.cpp ****             continue;
 133              		.loc 1 10 17
 134 00b4 13070000 		li	a4,0
 135              	.L13:
 136              	.LVL12:
  10:src/workers.cpp ****             continue;
 137              		.loc 1 10 26 discriminator 4
 138 00b8 B7E7F505 		li	a5,99999744
 139 00bc 9387E70F 		addi	a5,a5,254
 140 00c0 E3C2E7FE 		bgt	a4,a5,.L12
  11:src/workers.cpp ****     printString("Finishing ecall worker\n");
 141              		.loc 1 11 13 is_stmt 1 discriminator 2
  10:src/workers.cpp ****             continue;
 142              		.loc 1 10 9 is_stmt 0 discriminator 2
 143 00c4 1B071700 		addiw	a4,a4,1
 144              	.LVL13:
 145 00c8 6FF01FFF 		j	.L13
 146              	.L11:
 147              	.LBE3:
 148              	.LBE2:
  12:src/workers.cpp **** }
 149              		.loc 1 12 5 is_stmt 1
  12:src/workers.cpp **** }
 150              		.loc 1 12 16 is_stmt 0
 151 00cc 17050000 		lla	a0,.LC1
 151      13050500 
GAS LISTING /tmp/ccRZJF7n.s 			page 5


 152 00d4 97000000 		call	_Z11printStringPKc
 152      E7800000 
 153              	.LVL14:
  13:src/workers.cpp **** 
 154              		.loc 1 13 1
 155 00dc 83308100 		ld	ra,8(sp)
 156              		.cfi_restore 1
 157 00e0 03340100 		ld	s0,0(sp)
 158              		.cfi_restore 8
 159              		.cfi_def_cfa 2, 16
 160 00e4 13010101 		addi	sp,sp,16
 161              		.cfi_def_cfa_offset 0
 162 00e8 67800000 		jr	ra
 163              		.cfi_endproc
 164              	.LFE17:
 166              		.align	2
 167              		.globl	_Z11workerBodyAv
 169              	_Z11workerBodyAv:
 170              	.LFB18:
  16:src/workers.cpp ****     for (uint64 i = 0; i < 10; i++)
 171              		.loc 1 16 1 is_stmt 1
 172              		.cfi_startproc
 173 00ec 130101FE 		addi	sp,sp,-32
 174              		.cfi_def_cfa_offset 32
 175 00f0 233C1100 		sd	ra,24(sp)
 176 00f4 23388100 		sd	s0,16(sp)
 177 00f8 23349100 		sd	s1,8(sp)
 178              		.cfi_offset 1, -8
 179              		.cfi_offset 8, -16
 180              		.cfi_offset 9, -24
 181 00fc 13040102 		addi	s0,sp,32
 182              		.cfi_def_cfa 8, 0
  17:src/workers.cpp ****     {
 183              		.loc 1 17 5
 184              	.LVL15:
 185              	.LBB4:
  17:src/workers.cpp ****     {
 186              		.loc 1 17 17 is_stmt 0
 187 0100 93040000 		li	s1,0
 188 0104 6F000003 		j	.L22
 189              	.LVL16:
 190              	.L19:
 191              	.LBB5:
 192              	.LBB6:
  22:src/workers.cpp ****         {
 193              		.loc 1 22 9 discriminator 2
 194 0108 93861600 		addi	a3,a3,1
 195              	.LVL17:
 196              	.L21:
  22:src/workers.cpp ****         {
 197              		.loc 1 22 30 discriminator 1
 198 010c B7270000 		li	a5,8192
 199 0110 9387F770 		addi	a5,a5,1807
 200 0114 63EED700 		bgtu	a3,a5,.L18
 201              	.LBB7:
  24:src/workers.cpp ****             {
 202              		.loc 1 24 25
GAS LISTING /tmp/ccRZJF7n.s 			page 6


 203 0118 13070000 		li	a4,0
 204              	.L20:
 205              	.LVL18:
  24:src/workers.cpp ****             {
 206              		.loc 1 24 34 discriminator 3
 207 011c B7770000 		li	a5,28672
 208 0120 9387F752 		addi	a5,a5,1327
 209 0124 E3E2E7FE 		bgtu	a4,a5,.L19
  24:src/workers.cpp ****             {
 210              		.loc 1 24 13 discriminator 2
 211 0128 13071700 		addi	a4,a4,1
 212              	.LVL19:
 213 012c 6FF01FFF 		j	.L20
 214              	.LVL20:
 215              	.L18:
 216              	.LBE7:
 217              	.LBE6:
 218              	.LBE5:
  17:src/workers.cpp ****     {
 219              		.loc 1 17 5 discriminator 2
 220 0130 93841400 		addi	s1,s1,1
 221              	.LVL21:
 222              	.L22:
  17:src/workers.cpp ****     {
 223              		.loc 1 17 26 discriminator 1
 224 0134 93079000 		li	a5,9
 225 0138 63EC9702 		bgtu	s1,a5,.L16
 226              	.LBB9:
  19:src/workers.cpp ****         printInteger(i);
 227              		.loc 1 19 9 is_stmt 1
  19:src/workers.cpp ****         printInteger(i);
 228              		.loc 1 19 20 is_stmt 0
 229 013c 17050000 		lla	a0,.LC2
 229      13050500 
 230 0144 97000000 		call	_Z11printStringPKc
 230      E7800000 
 231              	.LVL22:
  20:src/workers.cpp ****         printString("\n");
 232              		.loc 1 20 9 is_stmt 1
  20:src/workers.cpp ****         printString("\n");
 233              		.loc 1 20 21 is_stmt 0
 234 014c 13850400 		mv	a0,s1
 235 0150 97000000 		call	_Z12printIntegerm
 235      E7800000 
 236              	.LVL23:
  21:src/workers.cpp ****         for (uint64 j = 0; j < 10000; j++)
 237              		.loc 1 21 9 is_stmt 1
  21:src/workers.cpp ****         for (uint64 j = 0; j < 10000; j++)
 238              		.loc 1 21 20 is_stmt 0
 239 0158 17050000 		lla	a0,.LC3
 239      13050500 
 240 0160 97000000 		call	_Z11printStringPKc
 240      E7800000 
 241              	.LVL24:
  22:src/workers.cpp ****         {
 242              		.loc 1 22 9 is_stmt 1
 243              	.LBB8:
GAS LISTING /tmp/ccRZJF7n.s 			page 7


  22:src/workers.cpp ****         {
 244              		.loc 1 22 21 is_stmt 0
 245 0168 93060000 		li	a3,0
 246 016c 6FF01FFA 		j	.L21
 247              	.LVL25:
 248              	.L16:
 249              	.LBE8:
 250              	.LBE9:
 251              	.LBE4:
  31:src/workers.cpp **** 
 252              		.loc 1 31 1
 253 0170 83308101 		ld	ra,24(sp)
 254              		.cfi_restore 1
 255 0174 03340101 		ld	s0,16(sp)
 256              		.cfi_restore 8
 257              		.cfi_def_cfa 2, 32
 258 0178 83348100 		ld	s1,8(sp)
 259              		.cfi_restore 9
 260              	.LVL26:
 261 017c 13010102 		addi	sp,sp,32
 262              		.cfi_def_cfa_offset 0
 263 0180 67800000 		jr	ra
 264              		.cfi_endproc
 265              	.LFE18:
 267              		.align	2
 268              		.globl	_Z11workerBodyBv
 270              	_Z11workerBodyBv:
 271              	.LFB19:
  34:src/workers.cpp ****     for (uint64 i = 0; i < 16; i++)
 272              		.loc 1 34 1 is_stmt 1
 273              		.cfi_startproc
 274 0184 130101FE 		addi	sp,sp,-32
 275              		.cfi_def_cfa_offset 32
 276 0188 233C1100 		sd	ra,24(sp)
 277 018c 23388100 		sd	s0,16(sp)
 278 0190 23349100 		sd	s1,8(sp)
 279              		.cfi_offset 1, -8
 280              		.cfi_offset 8, -16
 281              		.cfi_offset 9, -24
 282 0194 13040102 		addi	s0,sp,32
 283              		.cfi_def_cfa 8, 0
  35:src/workers.cpp ****     {
 284              		.loc 1 35 5
 285              	.LVL27:
 286              	.LBB10:
  35:src/workers.cpp ****     {
 287              		.loc 1 35 17 is_stmt 0
 288 0198 93040000 		li	s1,0
 289 019c 6F000003 		j	.L30
 290              	.LVL28:
 291              	.L27:
 292              	.LBB11:
 293              	.LBB12:
  40:src/workers.cpp ****         {
 294              		.loc 1 40 9 discriminator 2
 295 01a0 93861600 		addi	a3,a3,1
 296              	.LVL29:
GAS LISTING /tmp/ccRZJF7n.s 			page 8


 297              	.L29:
  40:src/workers.cpp ****         {
 298              		.loc 1 40 30 discriminator 1
 299 01a4 B7270000 		li	a5,8192
 300 01a8 9387F770 		addi	a5,a5,1807
 301 01ac 63EED700 		bgtu	a3,a5,.L26
 302              	.LBB13:
  42:src/workers.cpp ****             {
 303              		.loc 1 42 25
 304 01b0 13070000 		li	a4,0
 305              	.L28:
 306              	.LVL30:
  42:src/workers.cpp ****             {
 307              		.loc 1 42 34 discriminator 3
 308 01b4 B7770000 		li	a5,28672
 309 01b8 9387F752 		addi	a5,a5,1327
 310 01bc E3E2E7FE 		bgtu	a4,a5,.L27
  42:src/workers.cpp ****             {
 311              		.loc 1 42 13 discriminator 2
 312 01c0 13071700 		addi	a4,a4,1
 313              	.LVL31:
 314 01c4 6FF01FFF 		j	.L28
 315              	.LVL32:
 316              	.L26:
 317              	.LBE13:
 318              	.LBE12:
 319              	.LBE11:
  35:src/workers.cpp ****     {
 320              		.loc 1 35 5 discriminator 2
 321 01c8 93841400 		addi	s1,s1,1
 322              	.LVL33:
 323              	.L30:
  35:src/workers.cpp ****     {
 324              		.loc 1 35 26 discriminator 1
 325 01cc 9307F000 		li	a5,15
 326 01d0 63EC9702 		bgtu	s1,a5,.L24
 327              	.LBB15:
  37:src/workers.cpp ****         printInteger(i);
 328              		.loc 1 37 9 is_stmt 1
  37:src/workers.cpp ****         printInteger(i);
 329              		.loc 1 37 20 is_stmt 0
 330 01d4 17050000 		lla	a0,.LC4
 330      13050500 
 331 01dc 97000000 		call	_Z11printStringPKc
 331      E7800000 
 332              	.LVL34:
  38:src/workers.cpp ****         printString("\n");
 333              		.loc 1 38 9 is_stmt 1
  38:src/workers.cpp ****         printString("\n");
 334              		.loc 1 38 21 is_stmt 0
 335 01e4 13850400 		mv	a0,s1
 336 01e8 97000000 		call	_Z12printIntegerm
 336      E7800000 
 337              	.LVL35:
  39:src/workers.cpp ****         for (uint64 j = 0; j < 10000; j++)
 338              		.loc 1 39 9 is_stmt 1
  39:src/workers.cpp ****         for (uint64 j = 0; j < 10000; j++)
GAS LISTING /tmp/ccRZJF7n.s 			page 9


 339              		.loc 1 39 20 is_stmt 0
 340 01f0 17050000 		lla	a0,.LC3
 340      13050500 
 341 01f8 97000000 		call	_Z11printStringPKc
 341      E7800000 
 342              	.LVL36:
  40:src/workers.cpp ****         {
 343              		.loc 1 40 9 is_stmt 1
 344              	.LBB14:
  40:src/workers.cpp ****         {
 345              		.loc 1 40 21 is_stmt 0
 346 0200 93060000 		li	a3,0
 347 0204 6FF01FFA 		j	.L29
 348              	.LVL37:
 349              	.L24:
 350              	.LBE14:
 351              	.LBE15:
 352              	.LBE10:
  49:src/workers.cpp **** 
 353              		.loc 1 49 1
 354 0208 83308101 		ld	ra,24(sp)
 355              		.cfi_restore 1
 356 020c 03340101 		ld	s0,16(sp)
 357              		.cfi_restore 8
 358              		.cfi_def_cfa 2, 32
 359 0210 83348100 		ld	s1,8(sp)
 360              		.cfi_restore 9
 361              	.LVL38:
 362 0214 13010102 		addi	sp,sp,32
 363              		.cfi_def_cfa_offset 0
 364 0218 67800000 		jr	ra
 365              		.cfi_endproc
 366              	.LFE19:
 368              		.align	2
 369              		.globl	_Z11workerBodyCv
 371              	_Z11workerBodyCv:
 372              	.LFB21:
  57:src/workers.cpp **** 
  58:src/workers.cpp **** void workerBodyC()
  59:src/workers.cpp **** {
 373              		.loc 1 59 1 is_stmt 1
 374              		.cfi_startproc
 375 021c 130101FE 		addi	sp,sp,-32
 376              		.cfi_def_cfa_offset 32
 377 0220 233C1100 		sd	ra,24(sp)
 378 0224 23388100 		sd	s0,16(sp)
 379 0228 23349100 		sd	s1,8(sp)
 380 022c 23302101 		sd	s2,0(sp)
 381              		.cfi_offset 1, -8
 382              		.cfi_offset 8, -16
 383              		.cfi_offset 9, -24
 384              		.cfi_offset 18, -32
 385 0230 13040102 		addi	s0,sp,32
 386              		.cfi_def_cfa 8, 0
  60:src/workers.cpp ****     uint8 i = 0;
 387              		.loc 1 60 5
 388              	.LVL39:
GAS LISTING /tmp/ccRZJF7n.s 			page 10


 389              		.loc 1 60 11 is_stmt 0
 390 0234 93040000 		li	s1,0
 391              	.LVL40:
 392              	.L34:
  61:src/workers.cpp ****     for (; i < 3; i++)
 393              		.loc 1 61 5 is_stmt 1 discriminator 2
 394              		.loc 1 61 14 is_stmt 0 discriminator 2
 395 0238 93072000 		li	a5,2
 396 023c 63EE9702 		bgtu	s1,a5,.L33
  62:src/workers.cpp ****     {
  63:src/workers.cpp ****         printString("C: i=");
 397              		.loc 1 63 9 is_stmt 1 discriminator 1
 398              		.loc 1 63 20 is_stmt 0 discriminator 1
 399 0240 17050000 		lla	a0,.LC5
 399      13050500 
 400 0248 97000000 		call	_Z11printStringPKc
 400      E7800000 
 401              	.LVL41:
  64:src/workers.cpp ****         printInteger(i);
 402              		.loc 1 64 9 is_stmt 1 discriminator 1
 403              		.loc 1 64 21 is_stmt 0 discriminator 1
 404 0250 13850400 		mv	a0,s1
 405 0254 97000000 		call	_Z12printIntegerm
 405      E7800000 
 406              	.LVL42:
  65:src/workers.cpp ****         printString("\n");
 407              		.loc 1 65 9 is_stmt 1 discriminator 1
 408              		.loc 1 65 20 is_stmt 0 discriminator 1
 409 025c 17050000 		lla	a0,.LC3
 409      13050500 
 410 0264 97000000 		call	_Z11printStringPKc
 410      E7800000 
 411              	.LVL43:
  61:src/workers.cpp ****     {
 412              		.loc 1 61 5 discriminator 1
 413 026c 9B841400 		addiw	s1,s1,1
 414              	.LVL44:
 415 0270 93F4F40F 		andi	s1,s1,0xff
 416              	.LVL45:
 417 0274 6FF05FFC 		j	.L34
 418              	.L33:
  66:src/workers.cpp ****     }
  67:src/workers.cpp **** 
  68:src/workers.cpp ****     printString("C: yield\n");
 419              		.loc 1 68 5 is_stmt 1
 420              		.loc 1 68 16 is_stmt 0
 421 0278 17050000 		lla	a0,.LC6
 421      13050500 
 422 0280 97000000 		call	_Z11printStringPKc
 422      E7800000 
 423              	.LVL46:
  69:src/workers.cpp ****     __asm__ ("li t1, 7");
 424              		.loc 1 69 5 is_stmt 1
 425              		.loc 1 69 25 is_stmt 0
 426              	 #APP
 427              	# 69 "src/workers.cpp" 1
  70              	    TCB::yield();
GAS LISTING /tmp/ccRZJF7n.s 			page 11


 428              		li t1, 7
 429              	# 0 "" 2
 430              		.loc 1 70 5 is_stmt 1
 431              		.loc 1 70 15 is_stmt 0
 432              	 #NO_APP
 433 028c 97000000 		call	_ZN3TCB5yieldEv
 433      E7800000 
 434              	.LVL47:
  71:src/workers.cpp **** 
  72:src/workers.cpp ****     uint64 t1 = 0;
 435              		.loc 1 72 5 is_stmt 1
  73:src/workers.cpp ****     __asm__ ("mv %[t1], t1" : [t1] "=r"(t1));
 436              		.loc 1 73 5
 437              		.loc 1 73 45 is_stmt 0
 438              	 #APP
 439              	# 73 "src/workers.cpp" 1
  74              	
 440              		mv s2, t1
 441              	# 0 "" 2
 442              	.LVL48:
  75:src/workers.cpp ****     printString("C: t1=");
 443              		.loc 1 75 5 is_stmt 1
 444              		.loc 1 75 16 is_stmt 0
 445              	 #NO_APP
 446 0298 17050000 		lla	a0,.LC7
 446      13050500 
 447 02a0 97000000 		call	_Z11printStringPKc
 447      E7800000 
 448              	.LVL49:
  76:src/workers.cpp ****     printInteger(t1);
 449              		.loc 1 76 5 is_stmt 1
 450              		.loc 1 76 17 is_stmt 0
 451 02a8 13050900 		mv	a0,s2
 452 02ac 97000000 		call	_Z12printIntegerm
 452      E7800000 
 453              	.LVL50:
  77:src/workers.cpp ****     printString("\n");
 454              		.loc 1 77 5 is_stmt 1
 455              		.loc 1 77 16 is_stmt 0
 456 02b4 17050000 		lla	a0,.LC3
 456      13050500 
 457 02bc 97000000 		call	_Z11printStringPKc
 457      E7800000 
 458              	.LVL51:
  78:src/workers.cpp **** 
  79:src/workers.cpp ****     uint64 result = fibonacci(12);
 459              		.loc 1 79 5 is_stmt 1
 460              		.loc 1 79 30 is_stmt 0
 461 02c4 1305C000 		li	a0,12
 462 02c8 97000000 		call	_ZL9fibonaccim
 462      E7800000 
 463              	.LVL52:
 464 02d0 13090500 		mv	s2,a0
 465              	.LVL53:
  80:src/workers.cpp ****     printString("C: fibonaci=");
 466              		.loc 1 80 5 is_stmt 1
 467              		.loc 1 80 16 is_stmt 0
GAS LISTING /tmp/ccRZJF7n.s 			page 12


 468 02d4 17050000 		lla	a0,.LC8
 468      13050500 
 469              	.LVL54:
 470 02dc 97000000 		call	_Z11printStringPKc
 470      E7800000 
 471              	.LVL55:
  81:src/workers.cpp ****     printInteger(result);
 472              		.loc 1 81 5 is_stmt 1
 473              		.loc 1 81 17 is_stmt 0
 474 02e4 13050900 		mv	a0,s2
 475 02e8 97000000 		call	_Z12printIntegerm
 475      E7800000 
 476              	.LVL56:
  82:src/workers.cpp ****     printString("\n");
 477              		.loc 1 82 5 is_stmt 1
 478              		.loc 1 82 16 is_stmt 0
 479 02f0 17050000 		lla	a0,.LC3
 479      13050500 
 480 02f8 97000000 		call	_Z11printStringPKc
 480      E7800000 
 481              	.LVL57:
 482              	.L36:
  83:src/workers.cpp **** 
  84:src/workers.cpp ****     for (; i < 6; i++)
 483              		.loc 1 84 5 is_stmt 1 discriminator 2
 484              		.loc 1 84 14 is_stmt 0 discriminator 2
 485 0300 93075000 		li	a5,5
 486 0304 63EE9702 		bgtu	s1,a5,.L32
  85:src/workers.cpp ****     {
  86:src/workers.cpp ****         printString("C: i=");
 487              		.loc 1 86 9 is_stmt 1 discriminator 1
 488              		.loc 1 86 20 is_stmt 0 discriminator 1
 489 0308 17050000 		lla	a0,.LC5
 489      13050500 
 490 0310 97000000 		call	_Z11printStringPKc
 490      E7800000 
 491              	.LVL58:
  87:src/workers.cpp ****         printInteger(i);
 492              		.loc 1 87 9 is_stmt 1 discriminator 1
 493              		.loc 1 87 21 is_stmt 0 discriminator 1
 494 0318 13850400 		mv	a0,s1
 495 031c 97000000 		call	_Z12printIntegerm
 495      E7800000 
 496              	.LVL59:
  88:src/workers.cpp ****         printString("\n");
 497              		.loc 1 88 9 is_stmt 1 discriminator 1
 498              		.loc 1 88 20 is_stmt 0 discriminator 1
 499 0324 17050000 		lla	a0,.LC3
 499      13050500 
 500 032c 97000000 		call	_Z11printStringPKc
 500      E7800000 
 501              	.LVL60:
  84:src/workers.cpp ****     {
 502              		.loc 1 84 5 discriminator 1
 503 0334 9B841400 		addiw	s1,s1,1
 504              	.LVL61:
 505 0338 93F4F40F 		andi	s1,s1,0xff
GAS LISTING /tmp/ccRZJF7n.s 			page 13


 506              	.LVL62:
 507 033c 6FF05FFC 		j	.L36
 508              	.L32:
  89:src/workers.cpp ****     }
  90:src/workers.cpp **** //    TCB::yield();
  91:src/workers.cpp **** }
 509              		.loc 1 91 1
 510 0340 83308101 		ld	ra,24(sp)
 511              		.cfi_restore 1
 512 0344 03340101 		ld	s0,16(sp)
 513              		.cfi_restore 8
 514              		.cfi_def_cfa 2, 32
 515 0348 83348100 		ld	s1,8(sp)
 516              		.cfi_restore 9
 517              	.LVL63:
 518 034c 03390100 		ld	s2,0(sp)
 519              		.cfi_restore 18
 520              	.LVL64:
 521 0350 13010102 		addi	sp,sp,32
 522              		.cfi_def_cfa_offset 0
 523 0354 67800000 		jr	ra
 524              		.cfi_endproc
 525              	.LFE21:
 527              		.align	2
 528              		.globl	_Z11workerBodyDv
 530              	_Z11workerBodyDv:
 531              	.LFB22:
  92:src/workers.cpp **** 
  93:src/workers.cpp **** void workerBodyD()
  94:src/workers.cpp **** {
 532              		.loc 1 94 1 is_stmt 1
 533              		.cfi_startproc
 534 0358 130101FE 		addi	sp,sp,-32
 535              		.cfi_def_cfa_offset 32
 536 035c 233C1100 		sd	ra,24(sp)
 537 0360 23388100 		sd	s0,16(sp)
 538 0364 23349100 		sd	s1,8(sp)
 539 0368 23302101 		sd	s2,0(sp)
 540              		.cfi_offset 1, -8
 541              		.cfi_offset 8, -16
 542              		.cfi_offset 9, -24
 543              		.cfi_offset 18, -32
 544 036c 13040102 		addi	s0,sp,32
 545              		.cfi_def_cfa 8, 0
  95:src/workers.cpp ****     uint8 i = 10;
 546              		.loc 1 95 5
 547              	.LVL65:
 548              		.loc 1 95 11 is_stmt 0
 549 0370 9304A000 		li	s1,10
 550              	.LVL66:
 551              	.L40:
  96:src/workers.cpp ****     for (; i < 13; i++)
 552              		.loc 1 96 5 is_stmt 1 discriminator 2
 553              		.loc 1 96 14 is_stmt 0 discriminator 2
 554 0374 9307C000 		li	a5,12
 555 0378 63EE9702 		bgtu	s1,a5,.L39
  97:src/workers.cpp ****     {
GAS LISTING /tmp/ccRZJF7n.s 			page 14


  98:src/workers.cpp ****         printString("D: i=");
 556              		.loc 1 98 9 is_stmt 1 discriminator 1
 557              		.loc 1 98 20 is_stmt 0 discriminator 1
 558 037c 17050000 		lla	a0,.LC9
 558      13050500 
 559 0384 97000000 		call	_Z11printStringPKc
 559      E7800000 
 560              	.LVL67:
  99:src/workers.cpp ****         printInteger(i);
 561              		.loc 1 99 9 is_stmt 1 discriminator 1
 562              		.loc 1 99 21 is_stmt 0 discriminator 1
 563 038c 13850400 		mv	a0,s1
 564 0390 97000000 		call	_Z12printIntegerm
 564      E7800000 
 565              	.LVL68:
 100:src/workers.cpp ****         printString("\n");
 566              		.loc 1 100 9 is_stmt 1 discriminator 1
 567              		.loc 1 100 20 is_stmt 0 discriminator 1
 568 0398 17050000 		lla	a0,.LC3
 568      13050500 
 569 03a0 97000000 		call	_Z11printStringPKc
 569      E7800000 
 570              	.LVL69:
  96:src/workers.cpp ****     {
 571              		.loc 1 96 5 discriminator 1
 572 03a8 9B841400 		addiw	s1,s1,1
 573              	.LVL70:
 574 03ac 93F4F40F 		andi	s1,s1,0xff
 575              	.LVL71:
 576 03b0 6FF05FFC 		j	.L40
 577              	.L39:
 101:src/workers.cpp ****     }
 102:src/workers.cpp **** 
 103:src/workers.cpp ****     printString("D: yield\n");
 578              		.loc 1 103 5 is_stmt 1
 579              		.loc 1 103 16 is_stmt 0
 580 03b4 17050000 		lla	a0,.LC10
 580      13050500 
 581 03bc 97000000 		call	_Z11printStringPKc
 581      E7800000 
 582              	.LVL72:
 104:src/workers.cpp ****     __asm__ ("li t1, 5");
 583              		.loc 1 104 5 is_stmt 1
 584              		.loc 1 104 25 is_stmt 0
 585              	 #APP
 586              	# 104 "src/workers.cpp" 1
 105              	    TCB::yield();
 587              		li t1, 5
 588              	# 0 "" 2
 589              		.loc 1 105 5 is_stmt 1
 590              		.loc 1 105 15 is_stmt 0
 591              	 #NO_APP
 592 03c8 97000000 		call	_ZN3TCB5yieldEv
 592      E7800000 
 593              	.LVL73:
 106:src/workers.cpp **** 
 107:src/workers.cpp ****     uint64 result = fibonacci(16);
GAS LISTING /tmp/ccRZJF7n.s 			page 15


 594              		.loc 1 107 5 is_stmt 1
 595              		.loc 1 107 30 is_stmt 0
 596 03d0 13050001 		li	a0,16
 597 03d4 97000000 		call	_ZL9fibonaccim
 597      E7800000 
 598              	.LVL74:
 599 03dc 13090500 		mv	s2,a0
 600              	.LVL75:
 108:src/workers.cpp ****     printString("D: fibonaci=");
 601              		.loc 1 108 5 is_stmt 1
 602              		.loc 1 108 16 is_stmt 0
 603 03e0 17050000 		lla	a0,.LC11
 603      13050500 
 604              	.LVL76:
 605 03e8 97000000 		call	_Z11printStringPKc
 605      E7800000 
 606              	.LVL77:
 109:src/workers.cpp ****     printInteger(result);
 607              		.loc 1 109 5 is_stmt 1
 608              		.loc 1 109 17 is_stmt 0
 609 03f0 13050900 		mv	a0,s2
 610 03f4 97000000 		call	_Z12printIntegerm
 610      E7800000 
 611              	.LVL78:
 110:src/workers.cpp ****     printString("\n");
 612              		.loc 1 110 5 is_stmt 1
 613              		.loc 1 110 16 is_stmt 0
 614 03fc 17050000 		lla	a0,.LC3
 614      13050500 
 615 0404 97000000 		call	_Z11printStringPKc
 615      E7800000 
 616              	.LVL79:
 617              	.L42:
 111:src/workers.cpp **** 
 112:src/workers.cpp ****     for (; i < 16; i++)
 618              		.loc 1 112 5 is_stmt 1 discriminator 2
 619              		.loc 1 112 14 is_stmt 0 discriminator 2
 620 040c 9307F000 		li	a5,15
 621 0410 63EE9702 		bgtu	s1,a5,.L38
 113:src/workers.cpp ****     {
 114:src/workers.cpp ****         printString("D: i=");
 622              		.loc 1 114 9 is_stmt 1 discriminator 1
 623              		.loc 1 114 20 is_stmt 0 discriminator 1
 624 0414 17050000 		lla	a0,.LC9
 624      13050500 
 625 041c 97000000 		call	_Z11printStringPKc
 625      E7800000 
 626              	.LVL80:
 115:src/workers.cpp ****         printInteger(i);
 627              		.loc 1 115 9 is_stmt 1 discriminator 1
 628              		.loc 1 115 21 is_stmt 0 discriminator 1
 629 0424 13850400 		mv	a0,s1
 630 0428 97000000 		call	_Z12printIntegerm
 630      E7800000 
 631              	.LVL81:
 116:src/workers.cpp ****         printString("\n");
 632              		.loc 1 116 9 is_stmt 1 discriminator 1
GAS LISTING /tmp/ccRZJF7n.s 			page 16


 633              		.loc 1 116 20 is_stmt 0 discriminator 1
 634 0430 17050000 		lla	a0,.LC3
 634      13050500 
 635 0438 97000000 		call	_Z11printStringPKc
 635      E7800000 
 636              	.LVL82:
 112:src/workers.cpp ****     {
 637              		.loc 1 112 5 discriminator 1
 638 0440 9B841400 		addiw	s1,s1,1
 639              	.LVL83:
 640 0444 93F4F40F 		andi	s1,s1,0xff
 641              	.LVL84:
 642 0448 6FF05FFC 		j	.L42
 643              	.L38:
 117:src/workers.cpp ****     }
 118:src/workers.cpp **** //    TCB::yield();
 119:src/workers.cpp **** }
 644              		.loc 1 119 1
 645 044c 83308101 		ld	ra,24(sp)
 646              		.cfi_restore 1
 647 0450 03340101 		ld	s0,16(sp)
 648              		.cfi_restore 8
 649              		.cfi_def_cfa 2, 32
 650 0454 83348100 		ld	s1,8(sp)
 651              		.cfi_restore 9
 652              	.LVL85:
 653 0458 03390100 		ld	s2,0(sp)
 654              		.cfi_restore 18
 655              	.LVL86:
 656 045c 13010102 		addi	sp,sp,32
 657              		.cfi_def_cfa_offset 0
 658 0460 67800000 		jr	ra
 659              		.cfi_endproc
 660              	.LFE22:
 662              		.align	2
 663              		.globl	_Z10workerTestv
 665              	_Z10workerTestv:
 666              	.LFB23:
 120:src/workers.cpp **** 
 121:src/workers.cpp **** void workerTest()
 122:src/workers.cpp **** {
 667              		.loc 1 122 1 is_stmt 1
 668              		.cfi_startproc
 669 0464 130101FE 		addi	sp,sp,-32
 670              		.cfi_def_cfa_offset 32
 671 0468 233C1100 		sd	ra,24(sp)
 672 046c 23388100 		sd	s0,16(sp)
 673 0470 23349100 		sd	s1,8(sp)
 674              		.cfi_offset 1, -8
 675              		.cfi_offset 8, -16
 676              		.cfi_offset 9, -24
 677 0474 13040102 		addi	s0,sp,32
 678              		.cfi_def_cfa 8, 0
 123:src/workers.cpp ****     printString("--------------------------------\n");
 679              		.loc 1 123 5
 680              		.loc 1 123 16 is_stmt 0
 681 0478 17050000 		lla	a0,.LC12
GAS LISTING /tmp/ccRZJF7n.s 			page 17


 681      13050500 
 682 0480 97000000 		call	_Z11printStringPKc
 682      E7800000 
 683              	.LVL87:
 124:src/workers.cpp ****     printString("Starting test\n");
 684              		.loc 1 124 5 is_stmt 1
 685              		.loc 1 124 16 is_stmt 0
 686 0488 17050000 		lla	a0,.LC13
 686      13050500 
 687 0490 97000000 		call	_Z11printStringPKc
 687      E7800000 
 688              	.LVL88:
 125:src/workers.cpp ****     printString("--------------------------------\n");
 689              		.loc 1 125 5 is_stmt 1
 690              		.loc 1 125 16 is_stmt 0
 691 0498 17050000 		lla	a0,.LC12
 691      13050500 
 692 04a0 97000000 		call	_Z11printStringPKc
 692      E7800000 
 693              	.LVL89:
 126:src/workers.cpp **** 
 127:src/workers.cpp ****     printString("Test\n");
 694              		.loc 1 127 5 is_stmt 1
 695              		.loc 1 127 16 is_stmt 0
 696 04a8 17050000 		lla	a0,.LC14
 696      13050500 
 697 04b0 97000000 		call	_Z11printStringPKc
 697      E7800000 
 698              	.LVL90:
 128:src/workers.cpp ****     void* ptr = mem_alloc(1024);
 699              		.loc 1 128 5 is_stmt 1
 700              		.loc 1 128 26 is_stmt 0
 701 04b8 13050040 		li	a0,1024
 702 04bc 97000000 		call	_Z9mem_allocm
 702      E7800000 
 703              	.LVL91:
 704 04c4 93040500 		mv	s1,a0
 705              	.LVL92:
 129:src/workers.cpp ****     printString("ptr=");
 706              		.loc 1 129 5 is_stmt 1
 707              		.loc 1 129 16 is_stmt 0
 708 04c8 17050000 		lla	a0,.LC15
 708      13050500 
 709 04d0 97000000 		call	_Z11printStringPKc
 709      E7800000 
 710              	.LVL93:
 130:src/workers.cpp ****     printInteger((uint64)ptr);
 711              		.loc 1 130 5 is_stmt 1
 712              		.loc 1 130 17 is_stmt 0
 713 04d8 13850400 		mv	a0,s1
 714 04dc 97000000 		call	_Z12printIntegerm
 714      E7800000 
 715              	.LVL94:
 131:src/workers.cpp ****     printString("\n");
 716              		.loc 1 131 5 is_stmt 1
 717              		.loc 1 131 16 is_stmt 0
 718 04e4 17050000 		lla	a0,.LC3
GAS LISTING /tmp/ccRZJF7n.s 			page 18


 718      13050500 
 719 04ec 97000000 		call	_Z11printStringPKc
 719      E7800000 
 720              	.LVL95:
 132:src/workers.cpp **** 
 133:src/workers.cpp ****     mem_free(ptr);
 721              		.loc 1 133 5 is_stmt 1
 722              		.loc 1 133 13 is_stmt 0
 723 04f4 13850400 		mv	a0,s1
 724 04f8 97000000 		call	_Z8mem_freePv
 724      E7800000 
 725              	.LVL96:
 134:src/workers.cpp ****     printString("ptr freed\n");
 726              		.loc 1 134 5 is_stmt 1
 727              		.loc 1 134 16 is_stmt 0
 728 0500 17050000 		lla	a0,.LC16
 728      13050500 
 729 0508 97000000 		call	_Z11printStringPKc
 729      E7800000 
 730              	.LVL97:
 135:src/workers.cpp **** 
 136:src/workers.cpp ****     printString("--------------------------------\n");
 731              		.loc 1 136 5 is_stmt 1
 732              		.loc 1 136 16 is_stmt 0
 733 0510 17050000 		lla	a0,.LC12
 733      13050500 
 734 0518 97000000 		call	_Z11printStringPKc
 734      E7800000 
 735              	.LVL98:
 137:src/workers.cpp ****     printString("Test finished\n");
 736              		.loc 1 137 5 is_stmt 1
 737              		.loc 1 137 16 is_stmt 0
 738 0520 17050000 		lla	a0,.LC17
 738      13050500 
 739 0528 97000000 		call	_Z11printStringPKc
 739      E7800000 
 740              	.LVL99:
 138:src/workers.cpp ****     printString("--------------------------------\n");
 741              		.loc 1 138 5 is_stmt 1
 742              		.loc 1 138 16 is_stmt 0
 743 0530 17050000 		lla	a0,.LC12
 743      13050500 
 744 0538 97000000 		call	_Z11printStringPKc
 744      E7800000 
 745              	.LVL100:
 139:src/workers.cpp **** 
 140:src/workers.cpp **** }...
 746              		.loc 1 140 1
 747 0540 83308101 		ld	ra,24(sp)
 748              		.cfi_restore 1
 749 0544 03340101 		ld	s0,16(sp)
 750              		.cfi_restore 8
 751              		.cfi_def_cfa 2, 32
 752 0548 83348100 		ld	s1,8(sp)
 753              		.cfi_restore 9
 754              	.LVL101:
 755 054c 13010102 		addi	sp,sp,32
GAS LISTING /tmp/ccRZJF7n.s 			page 19


 756              		.cfi_def_cfa_offset 0
 757 0550 67800000 		jr	ra
 758              		.cfi_endproc
 759              	.LFE23:
 761              		.section	.rodata.str1.8,"aMS",@progbits,1
 762              		.align	3
 763              	.LC0:
 764 0000 53746172 		.string	"Starting ecall worker\n"
 764      74696E67 
 764      20656361 
 764      6C6C2077 
 764      6F726B65 
 765 0017 00       		.zero	1
 766              	.LC1:
 767 0018 46696E69 		.string	"Finishing ecall worker\n"
 767      7368696E 
 767      67206563 
 767      616C6C20 
 767      776F726B 
 768              	.LC2:
 769 0030 413A2069 		.string	"A: i="
 769      3D00
 770 0036 0000     		.zero	2
 771              	.LC3:
 772 0038 0A00     		.string	"\n"
 773 003a 00000000 		.zero	6
 773      0000
 774              	.LC4:
 775 0040 423A2069 		.string	"B: i="
 775      3D00
 776 0046 0000     		.zero	2
 777              	.LC5:
 778 0048 433A2069 		.string	"C: i="
 778      3D00
 779 004e 0000     		.zero	2
 780              	.LC6:
 781 0050 433A2079 		.string	"C: yield\n"
 781      69656C64 
 781      0A00
 782 005a 00000000 		.zero	6
 782      0000
 783              	.LC7:
 784 0060 433A2074 		.string	"C: t1="
 784      313D00
 785 0067 00       		.zero	1
 786              	.LC8:
 787 0068 433A2066 		.string	"C: fibonaci="
 787      69626F6E 
 787      6163693D 
 787      00
 788 0075 000000   		.zero	3
 789              	.LC9:
 790 0078 443A2069 		.string	"D: i="
 790      3D00
 791 007e 0000     		.zero	2
 792              	.LC10:
 793 0080 443A2079 		.string	"D: yield\n"
GAS LISTING /tmp/ccRZJF7n.s 			page 20


 793      69656C64 
 793      0A00
 794 008a 00000000 		.zero	6
 794      0000
 795              	.LC11:
 796 0090 443A2066 		.string	"D: fibonaci="
 796      69626F6E 
 796      6163693D 
 796      00
 797 009d 000000   		.zero	3
 798              	.LC12:
 799 00a0 2D2D2D2D 		.string	"--------------------------------\n"
 799      2D2D2D2D 
 799      2D2D2D2D 
 799      2D2D2D2D 
 799      2D2D2D2D 
 800 00c2 00000000 		.zero	6
 800      0000
 801              	.LC13:
 802 00c8 53746172 		.string	"Starting test\n"
 802      74696E67 
 802      20746573 
 802      740A00
 803 00d7 00       		.zero	1
 804              	.LC14:
 805 00d8 54657374 		.string	"Test\n"
 805      0A00
 806 00de 0000     		.zero	2
 807              	.LC15:
 808 00e0 7074723D 		.string	"ptr="
 808      00
 809 00e5 000000   		.zero	3
 810              	.LC16:
 811 00e8 70747220 		.string	"ptr freed\n"
 811      66726565 
 811      640A00
 812 00f3 00000000 		.zero	5
 812      00
 813              	.LC17:
 814 00f8 54657374 		.string	"Test finished\n"
 814      2066696E 
 814      69736865 
 814      640A00
 815              		.text
 816              	.Letext0:
 817              		.file 2 "src/../lib/hw.h"
 818              		.file 3 "src/../h/tcb.hpp"
 819              		.file 4 "src/../h/syscall_c.hpp"
 820              		.file 5 "src/../h/print.hpp"
GAS LISTING /tmp/ccRZJF7n.s 			page 21

